; generated by ARM C/C++ Compiler, 4.1 [Build 481]
; commandline ArmCC [--debug -c --asm --interleave -o.\exe\crypto_des3.o --depend=.\exe\crypto_des3.d --cpu=Cortex-M3 --apcs=interwork -O0 -I..\Source\APP -I..\Source\APP\MC -I..\Source\BSP -I..\Source\FS\FF007 -I..\Source\OS\uCOS-II\Ports\ARM-Cortex-M3\Generic\RealView -I..\Source\OS\uCOS-II\Source -I..\Source\Libraries\STM32F10x_StdPeriph_Driver\inc -I..\Source\Libraries\CMSIS\Core\CM3 -IC:\Keil\ARM\INC -IC:\Keil\ARM\INC\ST\STM32F10x -DSTM32F10X_MD -DHARDWARE_VER=1 --omf_browse=.\exe\crypto_des3.crf ..\Source\3DS\crypto_des3.c]
                          THUMB

                          AREA ||.text||, CODE, READONLY, ALIGN=2

                  cpu_to_le32 PROC
;;;61      */
;;;62     static INLINE unsigned long cpu_to_le32(unsigned long word)
000000  4770              BX       lr
;;;63     {
;;;64       return (word);
;;;65     }
;;;66     
                          ENDP

                  le32_to_cpu PROC
;;;75      */
;;;76     static INLINE unsigned long le32_to_cpu(unsigned long word)
000002  4770              BX       lr
;;;77     {
;;;78       return (word);
;;;79     }
;;;80     
                          ENDP

                  ror32 PROC
;;;90      */
;;;91     static INLINE unsigned long ror32(unsigned long word, unsigned int shift)
000004  4602              MOV      r2,r0
;;;92     {
;;;93       return ((word >> shift) | (word << (32 - shift)));
000006  fa22f001          LSR      r0,r2,r1
00000a  f1c10320          RSB      r3,r1,#0x20
00000e  fa02f303          LSL      r3,r2,r3
000012  4318              ORRS     r0,r0,r3
;;;94     }
000014  4770              BX       lr
;;;95     
                          ENDP

                  rol32 PROC
;;;105     */
;;;106    static INLINE unsigned long rol32(unsigned long word, unsigned int shift)
000016  4602              MOV      r2,r0
;;;107    {
;;;108      return ((word << shift) | (word >> (32 - shift)));
000018  fa02f001          LSL      r0,r2,r1
00001c  f1c10320          RSB      r3,r1,#0x20
000020  fa22f303          LSR      r3,r2,r3
000024  4318              ORRS     r0,r0,r3
;;;109    }
000026  4770              BX       lr
;;;110    
                          ENDP

                  crypto_des_expand_key PROC
;;;653    static unsigned long
;;;654    crypto_des_expand_key(unsigned long* p_exp_key, const unsigned char *p_key) {
000028  e92d5ff0          PUSH     {r4-r12,lr}
00002c  4681              MOV      r9,r0
00002e  468a              MOV      r10,r1
;;;655      unsigned long  a;
;;;656      unsigned long  b;
;;;657      unsigned long  c;
;;;658      unsigned long  d;
;;;659      unsigned long  w;
;;;660      const unsigned long* ptr = pc2;
000030  4cff              LDR      r4,|L1.1072|
;;;661    
;;;662    
;;;663      d = p_key[4]; d &= 0x0e; d <<= 4; d |= p_key[0] & 0x1e; d = pc1[d];
000032  f89a5004          LDRB     r5,[r10,#4]
000036  f005050e          AND      r5,r5,#0xe
00003a  012d              LSLS     r5,r5,#4
00003c  f89a0000          LDRB     r0,[r10,#0]
000040  f000001e          AND      r0,r0,#0x1e
000044  4305              ORRS     r5,r5,r0
000046  48fb              LDR      r0,|L1.1076|
000048  5d45              LDRB     r5,[r0,r5]
;;;664      c = p_key[5]; c &= 0x0e; c <<= 4; c |= p_key[1] & 0x1e; c = pc1[c];
00004a  f89a7005          LDRB     r7,[r10,#5]
00004e  f007070e          AND      r7,r7,#0xe
000052  013f              LSLS     r7,r7,#4
000054  f89a0001          LDRB     r0,[r10,#1]
000058  f000001e          AND      r0,r0,#0x1e
00005c  4307              ORRS     r7,r7,r0
00005e  48f5              LDR      r0,|L1.1076|
000060  5dc7              LDRB     r7,[r0,r7]
;;;665      b = p_key[6]; b &= 0x0e; b <<= 4; b |= p_key[2] & 0x1e; b = pc1[b];
000062  f89a6006          LDRB     r6,[r10,#6]
000066  f006060e          AND      r6,r6,#0xe
00006a  0136              LSLS     r6,r6,#4
00006c  f89a0002          LDRB     r0,[r10,#2]
000070  f000001e          AND      r0,r0,#0x1e
000074  4306              ORRS     r6,r6,r0
000076  48ef              LDR      r0,|L1.1076|
000078  5d86              LDRB     r6,[r0,r6]
;;;666      a = p_key[7]; a &= 0x0e; a <<= 4; a |= p_key[3] & 0x1e; a = pc1[a];
00007a  f89a8007          LDRB     r8,[r10,#7]
00007e  f008080e          AND      r8,r8,#0xe
000082  ea4f1808          LSL      r8,r8,#4
000086  f89a0003          LDRB     r0,[r10,#3]
00008a  f000001e          AND      r0,r0,#0x1e
00008e  ea400808          ORR      r8,r0,r8
000092  48e8              LDR      r0,|L1.1076|
000094  f8108008          LDRB     r8,[r0,r8]
;;;667    
;;;668      p_exp_key[15 * 2 + 0] = CRYPTO_DES_PC2(a, b, c, d); d = rs[d];
000098  0068              LSLS     r0,r5,#1
00009a  1cc0              ADDS     r0,r0,#3
00009c  f8540020          LDR      r0,[r4,r0,LSL #2]
0000a0  0079              LSLS     r1,r7,#1
0000a2  1c89              ADDS     r1,r1,#2
0000a4  f8541021          LDR      r1,[r4,r1,LSL #2]
0000a8  4308              ORRS     r0,r0,r1
0000aa  0071              LSLS     r1,r6,#1
0000ac  1c49              ADDS     r1,r1,#1
0000ae  f8541021          LDR      r1,[r4,r1,LSL #2]
0000b2  4308              ORRS     r0,r0,r1
0000b4  ea4f0148          LSL      r1,r8,#1
0000b8  f8541021          LDR      r1,[r4,r1,LSL #2]
0000bc  4308              ORRS     r0,r0,r1
0000be  f8c90078          STR      r0,[r9,#0x78]
0000c2  48dd              LDR      r0,|L1.1080|
0000c4  5d45              LDRB     r5,[r0,r5]
;;;669      p_exp_key[14 * 2 + 0] = CRYPTO_DES_PC2(d, a, b, c); c = rs[c]; b = rs[b];
0000c6  0078              LSLS     r0,r7,#1
0000c8  1cc0              ADDS     r0,r0,#3
0000ca  f8540020          LDR      r0,[r4,r0,LSL #2]
0000ce  0071              LSLS     r1,r6,#1
0000d0  1c89              ADDS     r1,r1,#2
0000d2  f8541021          LDR      r1,[r4,r1,LSL #2]
0000d6  4308              ORRS     r0,r0,r1
0000d8  ea4f0148          LSL      r1,r8,#1
0000dc  1c49              ADDS     r1,r1,#1
0000de  f8541021          LDR      r1,[r4,r1,LSL #2]
0000e2  4308              ORRS     r0,r0,r1
0000e4  0069              LSLS     r1,r5,#1
0000e6  f8541021          LDR      r1,[r4,r1,LSL #2]
0000ea  4308              ORRS     r0,r0,r1
0000ec  f8c90070          STR      r0,[r9,#0x70]
0000f0  48d1              LDR      r0,|L1.1080|
0000f2  5dc7              LDRB     r7,[r0,r7]
0000f4  5d86              LDRB     r6,[r0,r6]
;;;670      p_exp_key[13 * 2 + 0] = CRYPTO_DES_PC2(b, c, d, a); a = rs[a]; d = rs[d];
0000f6  ea4f0048          LSL      r0,r8,#1
0000fa  1cc0              ADDS     r0,r0,#3
0000fc  f8540020          LDR      r0,[r4,r0,LSL #2]
000100  0069              LSLS     r1,r5,#1
000102  1c89              ADDS     r1,r1,#2
000104  f8541021          LDR      r1,[r4,r1,LSL #2]
000108  4308              ORRS     r0,r0,r1
00010a  0079              LSLS     r1,r7,#1
00010c  1c49              ADDS     r1,r1,#1
00010e  f8541021          LDR      r1,[r4,r1,LSL #2]
000112  4308              ORRS     r0,r0,r1
000114  0071              LSLS     r1,r6,#1
000116  f8541021          LDR      r1,[r4,r1,LSL #2]
00011a  4308              ORRS     r0,r0,r1
00011c  f8c90068          STR      r0,[r9,#0x68]
000120  48c5              LDR      r0,|L1.1080|
000122  f8108008          LDRB     r8,[r0,r8]
000126  5d45              LDRB     r5,[r0,r5]
;;;671      p_exp_key[12 * 2 + 0] = CRYPTO_DES_PC2(d, a, b, c); c = rs[c]; b = rs[b];
000128  0078              LSLS     r0,r7,#1
00012a  1cc0              ADDS     r0,r0,#3
00012c  f8541020          LDR      r1,[r4,r0,LSL #2]
000130  0070              LSLS     r0,r6,#1
000132  1c80              ADDS     r0,r0,#2
000134  f8540020          LDR      r0,[r4,r0,LSL #2]
000138  4308              ORRS     r0,r0,r1
00013a  ea4f0148          LSL      r1,r8,#1
00013e  1c49              ADDS     r1,r1,#1
000140  f8541021          LDR      r1,[r4,r1,LSL #2]
000144  4308              ORRS     r0,r0,r1
000146  0069              LSLS     r1,r5,#1
000148  f8541021          LDR      r1,[r4,r1,LSL #2]
00014c  4308              ORRS     r0,r0,r1
00014e  f8c90060          STR      r0,[r9,#0x60]
000152  48b9              LDR      r0,|L1.1080|
000154  5dc7              LDRB     r7,[r0,r7]
000156  5d86              LDRB     r6,[r0,r6]
;;;672      p_exp_key[11 * 2 + 0] = CRYPTO_DES_PC2(b, c, d, a); a = rs[a]; d = rs[d];
000158  ea4f0048          LSL      r0,r8,#1
00015c  1cc0              ADDS     r0,r0,#3
00015e  f8540020          LDR      r0,[r4,r0,LSL #2]
000162  0069              LSLS     r1,r5,#1
000164  1c89              ADDS     r1,r1,#2
000166  f8541021          LDR      r1,[r4,r1,LSL #2]
00016a  4308              ORRS     r0,r0,r1
00016c  0079              LSLS     r1,r7,#1
00016e  1c49              ADDS     r1,r1,#1
000170  f8541021          LDR      r1,[r4,r1,LSL #2]
000174  4308              ORRS     r0,r0,r1
000176  0071              LSLS     r1,r6,#1
000178  f8541021          LDR      r1,[r4,r1,LSL #2]
00017c  4308              ORRS     r0,r0,r1
00017e  f8c90058          STR      r0,[r9,#0x58]
000182  48ad              LDR      r0,|L1.1080|
000184  f8108008          LDRB     r8,[r0,r8]
000188  5d45              LDRB     r5,[r0,r5]
;;;673      p_exp_key[10 * 2 + 0] = CRYPTO_DES_PC2(d, a, b, c); c = rs[c]; b = rs[b];
00018a  0078              LSLS     r0,r7,#1
00018c  1cc0              ADDS     r0,r0,#3
00018e  f8540020          LDR      r0,[r4,r0,LSL #2]
000192  0071              LSLS     r1,r6,#1
000194  1c89              ADDS     r1,r1,#2
000196  f8541021          LDR      r1,[r4,r1,LSL #2]
00019a  4308              ORRS     r0,r0,r1
00019c  ea4f0148          LSL      r1,r8,#1
0001a0  1c49              ADDS     r1,r1,#1
0001a2  f8541021          LDR      r1,[r4,r1,LSL #2]
0001a6  4308              ORRS     r0,r0,r1
0001a8  0069              LSLS     r1,r5,#1
0001aa  f8541021          LDR      r1,[r4,r1,LSL #2]
0001ae  4308              ORRS     r0,r0,r1
0001b0  f8c90050          STR      r0,[r9,#0x50]
0001b4  48a0              LDR      r0,|L1.1080|
0001b6  5dc7              LDRB     r7,[r0,r7]
0001b8  5d86              LDRB     r6,[r0,r6]
;;;674      p_exp_key[ 9 * 2 + 0] = CRYPTO_DES_PC2(b, c, d, a); a = rs[a]; d = rs[d];
0001ba  ea4f0048          LSL      r0,r8,#1
0001be  1cc0              ADDS     r0,r0,#3
0001c0  f8540020          LDR      r0,[r4,r0,LSL #2]
0001c4  0069              LSLS     r1,r5,#1
0001c6  1c89              ADDS     r1,r1,#2
0001c8  f8541021          LDR      r1,[r4,r1,LSL #2]
0001cc  4308              ORRS     r0,r0,r1
0001ce  0079              LSLS     r1,r7,#1
0001d0  1c49              ADDS     r1,r1,#1
0001d2  f8541021          LDR      r1,[r4,r1,LSL #2]
0001d6  4308              ORRS     r0,r0,r1
0001d8  0071              LSLS     r1,r6,#1
0001da  f8541021          LDR      r1,[r4,r1,LSL #2]
0001de  4308              ORRS     r0,r0,r1
0001e0  f8c90048          STR      r0,[r9,#0x48]
0001e4  4894              LDR      r0,|L1.1080|
0001e6  f8108008          LDRB     r8,[r0,r8]
0001ea  5d45              LDRB     r5,[r0,r5]
;;;675      p_exp_key[ 8 * 2 + 0] = CRYPTO_DES_PC2(d, a, b, c); c = rs[c];
0001ec  0078              LSLS     r0,r7,#1
0001ee  1cc0              ADDS     r0,r0,#3
0001f0  f8541020          LDR      r1,[r4,r0,LSL #2]
0001f4  0070              LSLS     r0,r6,#1
0001f6  1c80              ADDS     r0,r0,#2
0001f8  f8540020          LDR      r0,[r4,r0,LSL #2]
0001fc  4308              ORRS     r0,r0,r1
0001fe  ea4f0148          LSL      r1,r8,#1
000202  1c49              ADDS     r1,r1,#1
000204  f8541021          LDR      r1,[r4,r1,LSL #2]
000208  4308              ORRS     r0,r0,r1
00020a  0069              LSLS     r1,r5,#1
00020c  f8541021          LDR      r1,[r4,r1,LSL #2]
000210  4308              ORRS     r0,r0,r1
000212  f8c90040          STR      r0,[r9,#0x40]
000216  4888              LDR      r0,|L1.1080|
000218  5dc7              LDRB     r7,[r0,r7]
;;;676      p_exp_key[ 7 * 2 + 0] = CRYPTO_DES_PC2(c, d, a, b); b = rs[b]; a = rs[a];
00021a  0070              LSLS     r0,r6,#1
00021c  1cc0              ADDS     r0,r0,#3
00021e  f8540020          LDR      r0,[r4,r0,LSL #2]
000222  ea4f0148          LSL      r1,r8,#1
000226  1c89              ADDS     r1,r1,#2
000228  f8541021          LDR      r1,[r4,r1,LSL #2]
00022c  4308              ORRS     r0,r0,r1
00022e  0069              LSLS     r1,r5,#1
000230  1c49              ADDS     r1,r1,#1
000232  f8541021          LDR      r1,[r4,r1,LSL #2]
000236  4308              ORRS     r0,r0,r1
000238  0079              LSLS     r1,r7,#1
00023a  f8541021          LDR      r1,[r4,r1,LSL #2]
00023e  4308              ORRS     r0,r0,r1
000240  f8c90038          STR      r0,[r9,#0x38]
000244  487c              LDR      r0,|L1.1080|
000246  5d86              LDRB     r6,[r0,r6]
000248  f8108008          LDRB     r8,[r0,r8]
;;;677      p_exp_key[ 6 * 2 + 0] = CRYPTO_DES_PC2(a, b, c, d); d = rs[d]; c = rs[c];
00024c  0068              LSLS     r0,r5,#1
00024e  1cc0              ADDS     r0,r0,#3
000250  f8540020          LDR      r0,[r4,r0,LSL #2]
000254  0079              LSLS     r1,r7,#1
000256  1c89              ADDS     r1,r1,#2
000258  f8541021          LDR      r1,[r4,r1,LSL #2]
00025c  4308              ORRS     r0,r0,r1
00025e  0071              LSLS     r1,r6,#1
000260  1c49              ADDS     r1,r1,#1
000262  f8541021          LDR      r1,[r4,r1,LSL #2]
000266  4308              ORRS     r0,r0,r1
000268  ea4f0148          LSL      r1,r8,#1
00026c  f8541021          LDR      r1,[r4,r1,LSL #2]
000270  4308              ORRS     r0,r0,r1
000272  f8c90030          STR      r0,[r9,#0x30]
000276  4870              LDR      r0,|L1.1080|
000278  5d45              LDRB     r5,[r0,r5]
00027a  5dc7              LDRB     r7,[r0,r7]
;;;678      p_exp_key[ 5 * 2 + 0] = CRYPTO_DES_PC2(c, d, a, b); b = rs[b]; a = rs[a];
00027c  0070              LSLS     r0,r6,#1
00027e  1cc0              ADDS     r0,r0,#3
000280  f8540020          LDR      r0,[r4,r0,LSL #2]
000284  ea4f0148          LSL      r1,r8,#1
000288  1c89              ADDS     r1,r1,#2
00028a  f8541021          LDR      r1,[r4,r1,LSL #2]
00028e  4308              ORRS     r0,r0,r1
000290  0069              LSLS     r1,r5,#1
000292  1c49              ADDS     r1,r1,#1
000294  f8541021          LDR      r1,[r4,r1,LSL #2]
000298  4308              ORRS     r0,r0,r1
00029a  0079              LSLS     r1,r7,#1
00029c  f8541021          LDR      r1,[r4,r1,LSL #2]
0002a0  4308              ORRS     r0,r0,r1
0002a2  f8c90028          STR      r0,[r9,#0x28]
0002a6  4864              LDR      r0,|L1.1080|
0002a8  5d86              LDRB     r6,[r0,r6]
0002aa  f8108008          LDRB     r8,[r0,r8]
;;;679      p_exp_key[ 4 * 2 + 0] = CRYPTO_DES_PC2(a, b, c, d); d = rs[d]; c = rs[c];
0002ae  0068              LSLS     r0,r5,#1
0002b0  1cc0              ADDS     r0,r0,#3
0002b2  f8540020          LDR      r0,[r4,r0,LSL #2]
0002b6  0079              LSLS     r1,r7,#1
0002b8  1c89              ADDS     r1,r1,#2
0002ba  f8541021          LDR      r1,[r4,r1,LSL #2]
0002be  4308              ORRS     r0,r0,r1
0002c0  0071              LSLS     r1,r6,#1
0002c2  1c49              ADDS     r1,r1,#1
0002c4  f8541021          LDR      r1,[r4,r1,LSL #2]
0002c8  4308              ORRS     r0,r0,r1
0002ca  ea4f0148          LSL      r1,r8,#1
0002ce  f8541021          LDR      r1,[r4,r1,LSL #2]
0002d2  4308              ORRS     r0,r0,r1
0002d4  f8c90020          STR      r0,[r9,#0x20]
0002d8  4857              LDR      r0,|L1.1080|
0002da  5d45              LDRB     r5,[r0,r5]
0002dc  5dc7              LDRB     r7,[r0,r7]
;;;680      p_exp_key[ 3 * 2 + 0] = CRYPTO_DES_PC2(c, d, a, b); b = rs[b]; a = rs[a];
0002de  0070              LSLS     r0,r6,#1
0002e0  1cc0              ADDS     r0,r0,#3
0002e2  f8541020          LDR      r1,[r4,r0,LSL #2]
0002e6  ea4f0048          LSL      r0,r8,#1
0002ea  1c80              ADDS     r0,r0,#2
0002ec  f8540020          LDR      r0,[r4,r0,LSL #2]
0002f0  4308              ORRS     r0,r0,r1
0002f2  0069              LSLS     r1,r5,#1
0002f4  1c49              ADDS     r1,r1,#1
0002f6  f8541021          LDR      r1,[r4,r1,LSL #2]
0002fa  4308              ORRS     r0,r0,r1
0002fc  0079              LSLS     r1,r7,#1
0002fe  f8541021          LDR      r1,[r4,r1,LSL #2]
000302  4308              ORRS     r0,r0,r1
000304  f8c90018          STR      r0,[r9,#0x18]
000308  484b              LDR      r0,|L1.1080|
00030a  5d86              LDRB     r6,[r0,r6]
00030c  f8108008          LDRB     r8,[r0,r8]
;;;681      p_exp_key[ 2 * 2 + 0] = CRYPTO_DES_PC2(a, b, c, d); d = rs[d]; c = rs[c];
000310  0068              LSLS     r0,r5,#1
000312  1cc0              ADDS     r0,r0,#3
000314  f8541020          LDR      r1,[r4,r0,LSL #2]
000318  0078              LSLS     r0,r7,#1
00031a  1c80              ADDS     r0,r0,#2
00031c  f8540020          LDR      r0,[r4,r0,LSL #2]
000320  4308              ORRS     r0,r0,r1
000322  0071              LSLS     r1,r6,#1
000324  1c49              ADDS     r1,r1,#1
000326  f8541021          LDR      r1,[r4,r1,LSL #2]
00032a  4308              ORRS     r0,r0,r1
00032c  ea4f0148          LSL      r1,r8,#1
000330  f8541021          LDR      r1,[r4,r1,LSL #2]
000334  4308              ORRS     r0,r0,r1
000336  f8c90010          STR      r0,[r9,#0x10]
00033a  483f              LDR      r0,|L1.1080|
00033c  5d45              LDRB     r5,[r0,r5]
00033e  5dc7              LDRB     r7,[r0,r7]
;;;682      p_exp_key[ 1 * 2 + 0] = CRYPTO_DES_PC2(c, d, a, b); b = rs[b];
000340  0070              LSLS     r0,r6,#1
000342  1cc0              ADDS     r0,r0,#3
000344  f8540020          LDR      r0,[r4,r0,LSL #2]
000348  ea4f0148          LSL      r1,r8,#1
00034c  1c89              ADDS     r1,r1,#2
00034e  f8541021          LDR      r1,[r4,r1,LSL #2]
000352  4308              ORRS     r0,r0,r1
000354  0069              LSLS     r1,r5,#1
000356  1c49              ADDS     r1,r1,#1
000358  f8541021          LDR      r1,[r4,r1,LSL #2]
00035c  4308              ORRS     r0,r0,r1
00035e  0079              LSLS     r1,r7,#1
000360  f8541021          LDR      r1,[r4,r1,LSL #2]
000364  4308              ORRS     r0,r0,r1
000366  f8c90008          STR      r0,[r9,#8]
00036a  4833              LDR      r0,|L1.1080|
00036c  5d86              LDRB     r6,[r0,r6]
;;;683      p_exp_key[ 0 * 2 + 0] = CRYPTO_DES_PC2(b, c, d, a);
00036e  ea4f0048          LSL      r0,r8,#1
000372  1cc0              ADDS     r0,r0,#3
000374  f8541020          LDR      r1,[r4,r0,LSL #2]
000378  0068              LSLS     r0,r5,#1
00037a  1c80              ADDS     r0,r0,#2
00037c  f8540020          LDR      r0,[r4,r0,LSL #2]
000380  4308              ORRS     r0,r0,r1
000382  0079              LSLS     r1,r7,#1
000384  1c49              ADDS     r1,r1,#1
000386  f8541021          LDR      r1,[r4,r1,LSL #2]
00038a  4308              ORRS     r0,r0,r1
00038c  0071              LSLS     r1,r6,#1
00038e  f8541021          LDR      r1,[r4,r1,LSL #2]
000392  4308              ORRS     r0,r0,r1
000394  f8c90000          STR      r0,[r9,#0]
;;;684    
;;;685      /* Check if first half is weak.                                             */
;;;686      w = (a ^ c) | (b ^ d) | (rs[a] ^ c) | (b ^ rs[d]);
000398  ea880007          EOR      r0,r8,r7
00039c  ea860105          EOR      r1,r6,r5
0003a0  4308              ORRS     r0,r0,r1
0003a2  4925              LDR      r1,|L1.1080|
0003a4  f8111008          LDRB     r1,[r1,r8]
0003a8  4079              EORS     r1,r1,r7
0003aa  4308              ORRS     r0,r0,r1
0003ac  4922              LDR      r1,|L1.1080|
0003ae  5d49              LDRB     r1,[r1,r5]
0003b0  4071              EORS     r1,r1,r6
0003b2  ea400b01          ORR      r11,r0,r1
;;;687    
;;;688      /* Skip to next table set.                                                  */
;;;689      ptr += 512;
0003b6  f5046400          ADD      r4,r4,#0x800
;;;690    
;;;691      d = p_key[0]; d &= 0xe0; d >>= 4; d |= p_key[4] & 0xf0; d = pc1[d + 1];
0003ba  f89a5000          LDRB     r5,[r10,#0]
0003be  f00505e0          AND      r5,r5,#0xe0
0003c2  092d              LSRS     r5,r5,#4
0003c4  f89a0004          LDRB     r0,[r10,#4]
0003c8  f00000f0          AND      r0,r0,#0xf0
0003cc  4305              ORRS     r5,r5,r0
0003ce  4919              LDR      r1,|L1.1076|
0003d0  1c68              ADDS     r0,r5,#1
0003d2  5c0d              LDRB     r5,[r1,r0]
;;;692      c = p_key[1]; c &= 0xe0; c >>= 4; c |= p_key[5] & 0xf0; c = pc1[c + 1];
0003d4  f89a7001          LDRB     r7,[r10,#1]
0003d8  f00707e0          AND      r7,r7,#0xe0
0003dc  093f              LSRS     r7,r7,#4
0003de  f89a0005          LDRB     r0,[r10,#5]
0003e2  f00000f0          AND      r0,r0,#0xf0
0003e6  4307              ORRS     r7,r7,r0
0003e8  1c78              ADDS     r0,r7,#1
0003ea  5c0f              LDRB     r7,[r1,r0]
;;;693      b = p_key[2]; b &= 0xe0; b >>= 4; b |= p_key[6] & 0xf0; b = pc1[b + 1];
0003ec  f89a6002          LDRB     r6,[r10,#2]
0003f0  f00606e0          AND      r6,r6,#0xe0
0003f4  0936              LSRS     r6,r6,#4
0003f6  f89a0006          LDRB     r0,[r10,#6]
0003fa  f00000f0          AND      r0,r0,#0xf0
0003fe  4306              ORRS     r6,r6,r0
000400  1c70              ADDS     r0,r6,#1
000402  5c0e              LDRB     r6,[r1,r0]
;;;694      a = p_key[3]; a &= 0xe0; a >>= 4; a |= p_key[7] & 0xf0; a = pc1[a + 1];
000404  f89a8003          LDRB     r8,[r10,#3]
000408  f00808e0          AND      r8,r8,#0xe0
00040c  ea4f1818          LSR      r8,r8,#4
000410  f89a0007          LDRB     r0,[r10,#7]
000414  f00000f0          AND      r0,r0,#0xf0
000418  ea400808          ORR      r8,r0,r8
00041c  f1080001          ADD      r0,r8,#1
000420  f8118000          LDRB     r8,[r1,r0]
;;;695    
;;;696      /* Check if second half is weak.                                            */
;;;697      w |= (a ^ c) | (b ^ d) | (rs[a] ^ c) | (b ^ rs[d]);
000424  ea880007          EOR      r0,r8,r7
000428  ea860105          EOR      r1,r6,r5
00042c  4308              ORRS     r0,r0,r1
00042e  e005              B        |L1.1084|
                  |L1.1072|
                          DCD      pc2
                  |L1.1076|
                          DCD      pc1
                  |L1.1080|
                          DCD      ||rs||
                  |L1.1084|
00043c  49ff              LDR      r1,|L1.2108|
00043e  f8111008          LDRB     r1,[r1,r8]
000442  4079              EORS     r1,r1,r7
000444  4308              ORRS     r0,r0,r1
000446  49fd              LDR      r1,|L1.2108|
000448  5d49              LDRB     r1,[r1,r5]
00044a  4071              EORS     r1,r1,r6
00044c  4308              ORRS     r0,r0,r1
00044e  ea400b0b          ORR      r11,r0,r11
;;;698    
;;;699      p_exp_key[15 * 2 + 1] = CRYPTO_DES_PC2(a, b, c, d); d = rs[d];
000452  0068              LSLS     r0,r5,#1
000454  1cc0              ADDS     r0,r0,#3
000456  f8540020          LDR      r0,[r4,r0,LSL #2]
00045a  0079              LSLS     r1,r7,#1
00045c  1c89              ADDS     r1,r1,#2
00045e  f8541021          LDR      r1,[r4,r1,LSL #2]
000462  4308              ORRS     r0,r0,r1
000464  0071              LSLS     r1,r6,#1
000466  1c49              ADDS     r1,r1,#1
000468  f8541021          LDR      r1,[r4,r1,LSL #2]
00046c  4308              ORRS     r0,r0,r1
00046e  ea4f0148          LSL      r1,r8,#1
000472  f8541021          LDR      r1,[r4,r1,LSL #2]
000476  4308              ORRS     r0,r0,r1
000478  f8c9007c          STR      r0,[r9,#0x7c]
00047c  48ef              LDR      r0,|L1.2108|
00047e  5d45              LDRB     r5,[r0,r5]
;;;700      p_exp_key[14 * 2 + 1] = CRYPTO_DES_PC2(d, a, b, c); c = rs[c]; b = rs[b];
000480  0078              LSLS     r0,r7,#1
000482  1cc0              ADDS     r0,r0,#3
000484  f8540020          LDR      r0,[r4,r0,LSL #2]
000488  0071              LSLS     r1,r6,#1
00048a  1c89              ADDS     r1,r1,#2
00048c  f8541021          LDR      r1,[r4,r1,LSL #2]
000490  4308              ORRS     r0,r0,r1
000492  ea4f0148          LSL      r1,r8,#1
000496  1c49              ADDS     r1,r1,#1
000498  f8541021          LDR      r1,[r4,r1,LSL #2]
00049c  4308              ORRS     r0,r0,r1
00049e  0069              LSLS     r1,r5,#1
0004a0  f8541021          LDR      r1,[r4,r1,LSL #2]
0004a4  4308              ORRS     r0,r0,r1
0004a6  f8c90074          STR      r0,[r9,#0x74]
0004aa  48e4              LDR      r0,|L1.2108|
0004ac  5dc7              LDRB     r7,[r0,r7]
0004ae  5d86              LDRB     r6,[r0,r6]
;;;701      p_exp_key[13 * 2 + 1] = CRYPTO_DES_PC2(b, c, d, a); a = rs[a]; d = rs[d];
0004b0  ea4f0048          LSL      r0,r8,#1
0004b4  1cc0              ADDS     r0,r0,#3
0004b6  f8541020          LDR      r1,[r4,r0,LSL #2]
0004ba  0068              LSLS     r0,r5,#1
0004bc  1c80              ADDS     r0,r0,#2
0004be  f8540020          LDR      r0,[r4,r0,LSL #2]
0004c2  4308              ORRS     r0,r0,r1
0004c4  0079              LSLS     r1,r7,#1
0004c6  1c49              ADDS     r1,r1,#1
0004c8  f8541021          LDR      r1,[r4,r1,LSL #2]
0004cc  4308              ORRS     r0,r0,r1
0004ce  0071              LSLS     r1,r6,#1
0004d0  f8541021          LDR      r1,[r4,r1,LSL #2]
0004d4  4308              ORRS     r0,r0,r1
0004d6  f8c9006c          STR      r0,[r9,#0x6c]
0004da  48d8              LDR      r0,|L1.2108|
0004dc  f8108008          LDRB     r8,[r0,r8]
0004e0  5d45              LDRB     r5,[r0,r5]
;;;702      p_exp_key[12 * 2 + 1] = CRYPTO_DES_PC2(d, a, b, c); c = rs[c]; b = rs[b];
0004e2  0078              LSLS     r0,r7,#1
0004e4  1cc0              ADDS     r0,r0,#3
0004e6  f8541020          LDR      r1,[r4,r0,LSL #2]
0004ea  0070              LSLS     r0,r6,#1
0004ec  1c80              ADDS     r0,r0,#2
0004ee  f8540020          LDR      r0,[r4,r0,LSL #2]
0004f2  4308              ORRS     r0,r0,r1
0004f4  ea4f0148          LSL      r1,r8,#1
0004f8  1c49              ADDS     r1,r1,#1
0004fa  f8541021          LDR      r1,[r4,r1,LSL #2]
0004fe  4308              ORRS     r0,r0,r1
000500  0069              LSLS     r1,r5,#1
000502  f8541021          LDR      r1,[r4,r1,LSL #2]
000506  4308              ORRS     r0,r0,r1
000508  f8c90064          STR      r0,[r9,#0x64]
00050c  48cb              LDR      r0,|L1.2108|
00050e  5dc7              LDRB     r7,[r0,r7]
000510  5d86              LDRB     r6,[r0,r6]
;;;703      p_exp_key[11 * 2 + 1] = CRYPTO_DES_PC2(b, c, d, a); a = rs[a]; d = rs[d];
000512  ea4f0048          LSL      r0,r8,#1
000516  1cc0              ADDS     r0,r0,#3
000518  f8541020          LDR      r1,[r4,r0,LSL #2]
00051c  0068              LSLS     r0,r5,#1
00051e  1c80              ADDS     r0,r0,#2
000520  f8540020          LDR      r0,[r4,r0,LSL #2]
000524  4308              ORRS     r0,r0,r1
000526  0079              LSLS     r1,r7,#1
000528  1c49              ADDS     r1,r1,#1
00052a  f8541021          LDR      r1,[r4,r1,LSL #2]
00052e  4308              ORRS     r0,r0,r1
000530  0071              LSLS     r1,r6,#1
000532  f8541021          LDR      r1,[r4,r1,LSL #2]
000536  4308              ORRS     r0,r0,r1
000538  f8c9005c          STR      r0,[r9,#0x5c]
00053c  48bf              LDR      r0,|L1.2108|
00053e  f8108008          LDRB     r8,[r0,r8]
000542  5d45              LDRB     r5,[r0,r5]
;;;704      p_exp_key[10 * 2 + 1] = CRYPTO_DES_PC2(d, a, b, c); c = rs[c]; b = rs[b];
000544  0078              LSLS     r0,r7,#1
000546  1cc0              ADDS     r0,r0,#3
000548  f8540020          LDR      r0,[r4,r0,LSL #2]
00054c  0071              LSLS     r1,r6,#1
00054e  1c89              ADDS     r1,r1,#2
000550  f8541021          LDR      r1,[r4,r1,LSL #2]
000554  4308              ORRS     r0,r0,r1
000556  ea4f0148          LSL      r1,r8,#1
00055a  1c49              ADDS     r1,r1,#1
00055c  f8541021          LDR      r1,[r4,r1,LSL #2]
000560  4308              ORRS     r0,r0,r1
000562  0069              LSLS     r1,r5,#1
000564  f8541021          LDR      r1,[r4,r1,LSL #2]
000568  4308              ORRS     r0,r0,r1
00056a  f8c90054          STR      r0,[r9,#0x54]
00056e  48b3              LDR      r0,|L1.2108|
000570  5dc7              LDRB     r7,[r0,r7]
000572  5d86              LDRB     r6,[r0,r6]
;;;705      p_exp_key[ 9 * 2 + 1] = CRYPTO_DES_PC2(b, c, d, a); a = rs[a]; d = rs[d];
000574  ea4f0048          LSL      r0,r8,#1
000578  1cc0              ADDS     r0,r0,#3
00057a  f8540020          LDR      r0,[r4,r0,LSL #2]
00057e  0069              LSLS     r1,r5,#1
000580  1c89              ADDS     r1,r1,#2
000582  f8541021          LDR      r1,[r4,r1,LSL #2]
000586  4308              ORRS     r0,r0,r1
000588  0079              LSLS     r1,r7,#1
00058a  1c49              ADDS     r1,r1,#1
00058c  f8541021          LDR      r1,[r4,r1,LSL #2]
000590  4308              ORRS     r0,r0,r1
000592  0071              LSLS     r1,r6,#1
000594  f8541021          LDR      r1,[r4,r1,LSL #2]
000598  4308              ORRS     r0,r0,r1
00059a  f8c9004c          STR      r0,[r9,#0x4c]
00059e  48a7              LDR      r0,|L1.2108|
0005a0  f8108008          LDRB     r8,[r0,r8]
0005a4  5d45              LDRB     r5,[r0,r5]
;;;706      p_exp_key[ 8 * 2 + 1] = CRYPTO_DES_PC2(d, a, b, c); c = rs[c];
0005a6  0078              LSLS     r0,r7,#1
0005a8  1cc0              ADDS     r0,r0,#3
0005aa  f8541020          LDR      r1,[r4,r0,LSL #2]
0005ae  0070              LSLS     r0,r6,#1
0005b0  1c80              ADDS     r0,r0,#2
0005b2  f8540020          LDR      r0,[r4,r0,LSL #2]
0005b6  4308              ORRS     r0,r0,r1
0005b8  ea4f0148          LSL      r1,r8,#1
0005bc  1c49              ADDS     r1,r1,#1
0005be  f8541021          LDR      r1,[r4,r1,LSL #2]
0005c2  4308              ORRS     r0,r0,r1
0005c4  0069              LSLS     r1,r5,#1
0005c6  f8541021          LDR      r1,[r4,r1,LSL #2]
0005ca  4308              ORRS     r0,r0,r1
0005cc  f8c90044          STR      r0,[r9,#0x44]
0005d0  489a              LDR      r0,|L1.2108|
0005d2  5dc7              LDRB     r7,[r0,r7]
;;;707      p_exp_key[ 7 * 2 + 1] = CRYPTO_DES_PC2(c, d, a, b); b = rs[b]; a = rs[a];
0005d4  0070              LSLS     r0,r6,#1
0005d6  1cc0              ADDS     r0,r0,#3
0005d8  f8540020          LDR      r0,[r4,r0,LSL #2]
0005dc  ea4f0148          LSL      r1,r8,#1
0005e0  1c89              ADDS     r1,r1,#2
0005e2  f8541021          LDR      r1,[r4,r1,LSL #2]
0005e6  4308              ORRS     r0,r0,r1
0005e8  0069              LSLS     r1,r5,#1
0005ea  1c49              ADDS     r1,r1,#1
0005ec  f8541021          LDR      r1,[r4,r1,LSL #2]
0005f0  4308              ORRS     r0,r0,r1
0005f2  0079              LSLS     r1,r7,#1
0005f4  f8541021          LDR      r1,[r4,r1,LSL #2]
0005f8  4308              ORRS     r0,r0,r1
0005fa  f8c9003c          STR      r0,[r9,#0x3c]
0005fe  488f              LDR      r0,|L1.2108|
000600  5d86              LDRB     r6,[r0,r6]
000602  f8108008          LDRB     r8,[r0,r8]
;;;708      p_exp_key[ 6 * 2 + 1] = CRYPTO_DES_PC2(a, b, c, d); d = rs[d]; c = rs[c];
000606  0068              LSLS     r0,r5,#1
000608  1cc0              ADDS     r0,r0,#3
00060a  f8540020          LDR      r0,[r4,r0,LSL #2]
00060e  0079              LSLS     r1,r7,#1
000610  1c89              ADDS     r1,r1,#2
000612  f8541021          LDR      r1,[r4,r1,LSL #2]
000616  4308              ORRS     r0,r0,r1
000618  0071              LSLS     r1,r6,#1
00061a  1c49              ADDS     r1,r1,#1
00061c  f8541021          LDR      r1,[r4,r1,LSL #2]
000620  4308              ORRS     r0,r0,r1
000622  ea4f0148          LSL      r1,r8,#1
000626  f8541021          LDR      r1,[r4,r1,LSL #2]
00062a  4308              ORRS     r0,r0,r1
00062c  f8c90034          STR      r0,[r9,#0x34]
000630  4882              LDR      r0,|L1.2108|
000632  5d45              LDRB     r5,[r0,r5]
000634  5dc7              LDRB     r7,[r0,r7]
;;;709      p_exp_key[ 5 * 2 + 1] = CRYPTO_DES_PC2(c, d, a, b); b = rs[b]; a = rs[a];
000636  0070              LSLS     r0,r6,#1
000638  1cc0              ADDS     r0,r0,#3
00063a  f8540020          LDR      r0,[r4,r0,LSL #2]
00063e  ea4f0148          LSL      r1,r8,#1
000642  1c89              ADDS     r1,r1,#2
000644  f8541021          LDR      r1,[r4,r1,LSL #2]
000648  4308              ORRS     r0,r0,r1
00064a  0069              LSLS     r1,r5,#1
00064c  1c49              ADDS     r1,r1,#1
00064e  f8541021          LDR      r1,[r4,r1,LSL #2]
000652  4308              ORRS     r0,r0,r1
000654  0079              LSLS     r1,r7,#1
000656  f8541021          LDR      r1,[r4,r1,LSL #2]
00065a  4308              ORRS     r0,r0,r1
00065c  f8c9002c          STR      r0,[r9,#0x2c]
000660  4876              LDR      r0,|L1.2108|
000662  5d86              LDRB     r6,[r0,r6]
000664  f8108008          LDRB     r8,[r0,r8]
;;;710      p_exp_key[ 4 * 2 + 1] = CRYPTO_DES_PC2(a, b, c, d); d = rs[d]; c = rs[c];
000668  0068              LSLS     r0,r5,#1
00066a  1cc0              ADDS     r0,r0,#3
00066c  f8540020          LDR      r0,[r4,r0,LSL #2]
000670  0079              LSLS     r1,r7,#1
000672  1c89              ADDS     r1,r1,#2
000674  f8541021          LDR      r1,[r4,r1,LSL #2]
000678  4308              ORRS     r0,r0,r1
00067a  0071              LSLS     r1,r6,#1
00067c  1c49              ADDS     r1,r1,#1
00067e  f8541021          LDR      r1,[r4,r1,LSL #2]
000682  4308              ORRS     r0,r0,r1
000684  ea4f0148          LSL      r1,r8,#1
000688  f8541021          LDR      r1,[r4,r1,LSL #2]
00068c  4308              ORRS     r0,r0,r1
00068e  f8c90024          STR      r0,[r9,#0x24]
000692  486a              LDR      r0,|L1.2108|
000694  5d45              LDRB     r5,[r0,r5]
000696  5dc7              LDRB     r7,[r0,r7]
;;;711      p_exp_key[ 3 * 2 + 1] = CRYPTO_DES_PC2(c, d, a, b); b = rs[b]; a = rs[a];
000698  0070              LSLS     r0,r6,#1
00069a  1cc0              ADDS     r0,r0,#3
00069c  f8541020          LDR      r1,[r4,r0,LSL #2]
0006a0  ea4f0048          LSL      r0,r8,#1
0006a4  1c80              ADDS     r0,r0,#2
0006a6  f8540020          LDR      r0,[r4,r0,LSL #2]
0006aa  4308              ORRS     r0,r0,r1
0006ac  0069              LSLS     r1,r5,#1
0006ae  1c49              ADDS     r1,r1,#1
0006b0  f8541021          LDR      r1,[r4,r1,LSL #2]
0006b4  4308              ORRS     r0,r0,r1
0006b6  0079              LSLS     r1,r7,#1
0006b8  f8541021          LDR      r1,[r4,r1,LSL #2]
0006bc  4308              ORRS     r0,r0,r1
0006be  f8c9001c          STR      r0,[r9,#0x1c]
0006c2  485e              LDR      r0,|L1.2108|
0006c4  5d86              LDRB     r6,[r0,r6]
0006c6  f8108008          LDRB     r8,[r0,r8]
;;;712      p_exp_key[ 2 * 2 + 1] = CRYPTO_DES_PC2(a, b, c, d); d = rs[d]; c = rs[c];
0006ca  0068              LSLS     r0,r5,#1
0006cc  1cc0              ADDS     r0,r0,#3
0006ce  f8540020          LDR      r0,[r4,r0,LSL #2]
0006d2  0079              LSLS     r1,r7,#1
0006d4  1c89              ADDS     r1,r1,#2
0006d6  f8541021          LDR      r1,[r4,r1,LSL #2]
0006da  4308              ORRS     r0,r0,r1
0006dc  0071              LSLS     r1,r6,#1
0006de  1c49              ADDS     r1,r1,#1
0006e0  f8541021          LDR      r1,[r4,r1,LSL #2]
0006e4  4308              ORRS     r0,r0,r1
0006e6  ea4f0148          LSL      r1,r8,#1
0006ea  f8541021          LDR      r1,[r4,r1,LSL #2]
0006ee  4308              ORRS     r0,r0,r1
0006f0  f8c90014          STR      r0,[r9,#0x14]
0006f4  4851              LDR      r0,|L1.2108|
0006f6  5d45              LDRB     r5,[r0,r5]
0006f8  5dc7              LDRB     r7,[r0,r7]
;;;713      p_exp_key[ 1 * 2 + 1] = CRYPTO_DES_PC2(c, d, a, b); b = rs[b];
0006fa  0070              LSLS     r0,r6,#1
0006fc  1cc0              ADDS     r0,r0,#3
0006fe  f8541020          LDR      r1,[r4,r0,LSL #2]
000702  ea4f0048          LSL      r0,r8,#1
000706  1c80              ADDS     r0,r0,#2
000708  f8540020          LDR      r0,[r4,r0,LSL #2]
00070c  4308              ORRS     r0,r0,r1
00070e  0069              LSLS     r1,r5,#1
000710  1c49              ADDS     r1,r1,#1
000712  f8541021          LDR      r1,[r4,r1,LSL #2]
000716  4308              ORRS     r0,r0,r1
000718  0079              LSLS     r1,r7,#1
00071a  f8541021          LDR      r1,[r4,r1,LSL #2]
00071e  4308              ORRS     r0,r0,r1
000720  f8c9000c          STR      r0,[r9,#0xc]
000724  4845              LDR      r0,|L1.2108|
000726  5d86              LDRB     r6,[r0,r6]
;;;714      p_exp_key[ 0 * 2 + 1] = CRYPTO_DES_PC2(b, c, d, a);
000728  ea4f0048          LSL      r0,r8,#1
00072c  1cc0              ADDS     r0,r0,#3
00072e  f8540020          LDR      r0,[r4,r0,LSL #2]
000732  0069              LSLS     r1,r5,#1
000734  1c89              ADDS     r1,r1,#2
000736  f8541021          LDR      r1,[r4,r1,LSL #2]
00073a  4308              ORRS     r0,r0,r1
00073c  0079              LSLS     r1,r7,#1
00073e  1c49              ADDS     r1,r1,#1
000740  f8541021          LDR      r1,[r4,r1,LSL #2]
000744  4308              ORRS     r0,r0,r1
000746  0071              LSLS     r1,r6,#1
000748  f8541021          LDR      r1,[r4,r1,LSL #2]
00074c  4308              ORRS     r0,r0,r1
00074e  f8c90004          STR      r0,[r9,#4]
;;;715    
;;;716      /* Fixup: 2413 5768 -> 1357 2468.                                           */
;;;717      for (d = 0; d < 16; ++d) {
000752  2500              MOVS     r5,#0
000754  e01a              B        |L1.1932|
                  |L1.1878|
;;;718        a  = p_exp_key[2 * d + 0];
000756  0068              LSLS     r0,r5,#1
000758  f8598020          LDR      r8,[r9,r0,LSL #2]
;;;719        b  = p_exp_key[2 * d + 1];
00075c  0068              LSLS     r0,r5,#1
00075e  1c40              ADDS     r0,r0,#1
000760  f8596020          LDR      r6,[r9,r0,LSL #2]
;;;720        c  = a ^ b;
000764  ea880706          EOR      r7,r8,r6
;;;721        c &= 0xffff0000;
000768  f36f070f          BFC      r7,#0,#16
;;;722        a ^= c;
00076c  ea880807          EOR      r8,r8,r7
;;;723        b ^= c;
000770  407e              EORS     r6,r6,r7
;;;724        ROL(b, 18);
000772  2112              MOVS     r1,#0x12
000774  4630              MOV      r0,r6
000776  f7fffffe          BL       rol32
00077a  4606              MOV      r6,r0
;;;725        p_exp_key[2 * d + 0] = a;
00077c  0068              LSLS     r0,r5,#1
00077e  f8498020          STR      r8,[r9,r0,LSL #2]
;;;726        p_exp_key[2 * d + 1] = b;
000782  0068              LSLS     r0,r5,#1
000784  1c40              ADDS     r0,r0,#1
000786  f8496020          STR      r6,[r9,r0,LSL #2]
00078a  1c6d              ADDS     r5,r5,#1              ;717
                  |L1.1932|
00078c  2d10              CMP      r5,#0x10              ;717
00078e  d3e2              BCC      |L1.1878|
;;;727      }
;;;728    
;;;729      /* Zero if weak key.                                                        */
;;;730      return (w);
000790  4658              MOV      r0,r11
;;;731    }
000792  e8bd9ff0          POP      {r4-r12,pc}
;;;732    
                          ENDP

                  crypto_des3_expand_key PROC
;;;734    static void
;;;735    crypto_des3_expand_key(unsigned long* p_exp_key, const unsigned char *p_key) {
000796  e92d47f0          PUSH     {r4-r10,lr}
00079a  4681              MOV      r9,r0
00079c  468a              MOV      r10,r1
;;;736      unsigned long  a;
;;;737      unsigned long  b;
;;;738      unsigned long  c;
;;;739      unsigned long  d;
;;;740      const unsigned long* ptr = pc2;
00079e  4c28              LDR      r4,|L1.2112|
;;;741    
;;;742    
;;;743      d = p_key[4]; d &= 0x0e; d <<= 4; d |= p_key[0] & 0x1e; d = pc1[d];
0007a0  f89a5004          LDRB     r5,[r10,#4]
0007a4  f005050e          AND      r5,r5,#0xe
0007a8  012d              LSLS     r5,r5,#4
0007aa  f89a0000          LDRB     r0,[r10,#0]
0007ae  f000001e          AND      r0,r0,#0x1e
0007b2  4305              ORRS     r5,r5,r0
0007b4  4823              LDR      r0,|L1.2116|
0007b6  5d45              LDRB     r5,[r0,r5]
;;;744      c = p_key[5]; c &= 0x0e; c <<= 4; c |= p_key[1] & 0x1e; c = pc1[c];
0007b8  f89a7005          LDRB     r7,[r10,#5]
0007bc  f007070e          AND      r7,r7,#0xe
0007c0  013f              LSLS     r7,r7,#4
0007c2  f89a0001          LDRB     r0,[r10,#1]
0007c6  f000001e          AND      r0,r0,#0x1e
0007ca  4307              ORRS     r7,r7,r0
0007cc  481d              LDR      r0,|L1.2116|
0007ce  5dc7              LDRB     r7,[r0,r7]
;;;745      b = p_key[6]; b &= 0x0e; b <<= 4; b |= p_key[2] & 0x1e; b = pc1[b];
0007d0  f89a6006          LDRB     r6,[r10,#6]
0007d4  f006060e          AND      r6,r6,#0xe
0007d8  0136              LSLS     r6,r6,#4
0007da  f89a0002          LDRB     r0,[r10,#2]
0007de  f000001e          AND      r0,r0,#0x1e
0007e2  4306              ORRS     r6,r6,r0
0007e4  4817              LDR      r0,|L1.2116|
0007e6  5d86              LDRB     r6,[r0,r6]
;;;746      a = p_key[7]; a &= 0x0e; a <<= 4; a |= p_key[3] & 0x1e; a = pc1[a];
0007e8  f89a8007          LDRB     r8,[r10,#7]
0007ec  f008080e          AND      r8,r8,#0xe
0007f0  ea4f1808          LSL      r8,r8,#4
0007f4  f89a0003          LDRB     r0,[r10,#3]
0007f8  f000001e          AND      r0,r0,#0x1e
0007fc  ea400808          ORR      r8,r0,r8
000800  4810              LDR      r0,|L1.2116|
000802  f8108008          LDRB     r8,[r0,r8]
;;;747    
;;;748      p_exp_key[ 0 * 2] = CRYPTO_DES_PC2(a, b, c, d); d = rs[d];
000806  0068              LSLS     r0,r5,#1
000808  1cc0              ADDS     r0,r0,#3
00080a  f8540020          LDR      r0,[r4,r0,LSL #2]
00080e  0079              LSLS     r1,r7,#1
000810  1c89              ADDS     r1,r1,#2
000812  f8541021          LDR      r1,[r4,r1,LSL #2]
000816  4308              ORRS     r0,r0,r1
000818  0071              LSLS     r1,r6,#1
00081a  1c49              ADDS     r1,r1,#1
00081c  f8541021          LDR      r1,[r4,r1,LSL #2]
000820  4308              ORRS     r0,r0,r1
000822  ea4f0148          LSL      r1,r8,#1
000826  f8541021          LDR      r1,[r4,r1,LSL #2]
00082a  4308              ORRS     r0,r0,r1
00082c  f8c90000          STR      r0,[r9,#0]
000830  4802              LDR      r0,|L1.2108|
000832  5d45              LDRB     r5,[r0,r5]
;;;749      p_exp_key[ 1 * 2] = CRYPTO_DES_PC2(d, a, b, c); c = rs[c]; b = rs[b];
000834  0078              LSLS     r0,r7,#1
000836  1cc0              ADDS     r0,r0,#3
000838  e006              B        |L1.2120|
00083a  0000              DCW      0x0000
                  |L1.2108|
                          DCD      ||rs||
                  |L1.2112|
                          DCD      pc2
                  |L1.2116|
                          DCD      pc1
                  |L1.2120|
000848  f8540020          LDR      r0,[r4,r0,LSL #2]
00084c  0071              LSLS     r1,r6,#1
00084e  1c89              ADDS     r1,r1,#2
000850  f8541021          LDR      r1,[r4,r1,LSL #2]
000854  4308              ORRS     r0,r0,r1
000856  ea4f0148          LSL      r1,r8,#1
00085a  1c49              ADDS     r1,r1,#1
00085c  f8541021          LDR      r1,[r4,r1,LSL #2]
000860  4308              ORRS     r0,r0,r1
000862  0069              LSLS     r1,r5,#1
000864  f8541021          LDR      r1,[r4,r1,LSL #2]
000868  4308              ORRS     r0,r0,r1
00086a  f8c90008          STR      r0,[r9,#8]
00086e  48ff              LDR      r0,|L1.3180|
000870  5dc7              LDRB     r7,[r0,r7]
000872  5d86              LDRB     r6,[r0,r6]
;;;750      p_exp_key[ 2 * 2] = CRYPTO_DES_PC2(b, c, d, a); a = rs[a]; d = rs[d];
000874  ea4f0048          LSL      r0,r8,#1
000878  1cc0              ADDS     r0,r0,#3
00087a  f8540020          LDR      r0,[r4,r0,LSL #2]
00087e  0069              LSLS     r1,r5,#1
000880  1c89              ADDS     r1,r1,#2
000882  f8541021          LDR      r1,[r4,r1,LSL #2]
000886  4308              ORRS     r0,r0,r1
000888  0079              LSLS     r1,r7,#1
00088a  1c49              ADDS     r1,r1,#1
00088c  f8541021          LDR      r1,[r4,r1,LSL #2]
000890  4308              ORRS     r0,r0,r1
000892  0071              LSLS     r1,r6,#1
000894  f8541021          LDR      r1,[r4,r1,LSL #2]
000898  4308              ORRS     r0,r0,r1
00089a  f8c90010          STR      r0,[r9,#0x10]
00089e  48f3              LDR      r0,|L1.3180|
0008a0  f8108008          LDRB     r8,[r0,r8]
0008a4  5d45              LDRB     r5,[r0,r5]
;;;751      p_exp_key[ 3 * 2] = CRYPTO_DES_PC2(d, a, b, c); c = rs[c]; b = rs[b];
0008a6  0078              LSLS     r0,r7,#1
0008a8  1cc0              ADDS     r0,r0,#3
0008aa  f8540020          LDR      r0,[r4,r0,LSL #2]
0008ae  0071              LSLS     r1,r6,#1
0008b0  1c89              ADDS     r1,r1,#2
0008b2  f8541021          LDR      r1,[r4,r1,LSL #2]
0008b6  4308              ORRS     r0,r0,r1
0008b8  ea4f0148          LSL      r1,r8,#1
0008bc  1c49              ADDS     r1,r1,#1
0008be  f8541021          LDR      r1,[r4,r1,LSL #2]
0008c2  4308              ORRS     r0,r0,r1
0008c4  0069              LSLS     r1,r5,#1
0008c6  f8541021          LDR      r1,[r4,r1,LSL #2]
0008ca  4308              ORRS     r0,r0,r1
0008cc  f8c90018          STR      r0,[r9,#0x18]
0008d0  48e6              LDR      r0,|L1.3180|
0008d2  5dc7              LDRB     r7,[r0,r7]
0008d4  5d86              LDRB     r6,[r0,r6]
;;;752      p_exp_key[ 4 * 2] = CRYPTO_DES_PC2(b, c, d, a); a = rs[a]; d = rs[d];
0008d6  ea4f0048          LSL      r0,r8,#1
0008da  1cc0              ADDS     r0,r0,#3
0008dc  f8540020          LDR      r0,[r4,r0,LSL #2]
0008e0  0069              LSLS     r1,r5,#1
0008e2  1c89              ADDS     r1,r1,#2
0008e4  f8541021          LDR      r1,[r4,r1,LSL #2]
0008e8  4308              ORRS     r0,r0,r1
0008ea  0079              LSLS     r1,r7,#1
0008ec  1c49              ADDS     r1,r1,#1
0008ee  f8541021          LDR      r1,[r4,r1,LSL #2]
0008f2  4308              ORRS     r0,r0,r1
0008f4  0071              LSLS     r1,r6,#1
0008f6  f8541021          LDR      r1,[r4,r1,LSL #2]
0008fa  4308              ORRS     r0,r0,r1
0008fc  f8c90020          STR      r0,[r9,#0x20]
000900  48da              LDR      r0,|L1.3180|
000902  f8108008          LDRB     r8,[r0,r8]
000906  5d45              LDRB     r5,[r0,r5]
;;;753      p_exp_key[ 5 * 2] = CRYPTO_DES_PC2(d, a, b, c); c = rs[c]; b = rs[b];
000908  0078              LSLS     r0,r7,#1
00090a  1cc0              ADDS     r0,r0,#3
00090c  f8541020          LDR      r1,[r4,r0,LSL #2]
000910  0070              LSLS     r0,r6,#1
000912  1c80              ADDS     r0,r0,#2
000914  f8540020          LDR      r0,[r4,r0,LSL #2]
000918  4308              ORRS     r0,r0,r1
00091a  ea4f0148          LSL      r1,r8,#1
00091e  1c49              ADDS     r1,r1,#1
000920  f8541021          LDR      r1,[r4,r1,LSL #2]
000924  4308              ORRS     r0,r0,r1
000926  0069              LSLS     r1,r5,#1
000928  f8541021          LDR      r1,[r4,r1,LSL #2]
00092c  4308              ORRS     r0,r0,r1
00092e  f8c90028          STR      r0,[r9,#0x28]
000932  48ce              LDR      r0,|L1.3180|
000934  5dc7              LDRB     r7,[r0,r7]
000936  5d86              LDRB     r6,[r0,r6]
;;;754      p_exp_key[ 6 * 2] = CRYPTO_DES_PC2(b, c, d, a); a = rs[a]; d = rs[d];
000938  ea4f0048          LSL      r0,r8,#1
00093c  1cc0              ADDS     r0,r0,#3
00093e  f8540020          LDR      r0,[r4,r0,LSL #2]
000942  0069              LSLS     r1,r5,#1
000944  1c89              ADDS     r1,r1,#2
000946  f8541021          LDR      r1,[r4,r1,LSL #2]
00094a  4308              ORRS     r0,r0,r1
00094c  0079              LSLS     r1,r7,#1
00094e  1c49              ADDS     r1,r1,#1
000950  f8541021          LDR      r1,[r4,r1,LSL #2]
000954  4308              ORRS     r0,r0,r1
000956  0071              LSLS     r1,r6,#1
000958  f8541021          LDR      r1,[r4,r1,LSL #2]
00095c  4308              ORRS     r0,r0,r1
00095e  f8c90030          STR      r0,[r9,#0x30]
000962  48c2              LDR      r0,|L1.3180|
000964  f8108008          LDRB     r8,[r0,r8]
000968  5d45              LDRB     r5,[r0,r5]
;;;755      p_exp_key[ 7 * 2] = CRYPTO_DES_PC2(d, a, b, c); c = rs[c];
00096a  0078              LSLS     r0,r7,#1
00096c  1cc0              ADDS     r0,r0,#3
00096e  f8540020          LDR      r0,[r4,r0,LSL #2]
000972  0071              LSLS     r1,r6,#1
000974  1c89              ADDS     r1,r1,#2
000976  f8541021          LDR      r1,[r4,r1,LSL #2]
00097a  4308              ORRS     r0,r0,r1
00097c  ea4f0148          LSL      r1,r8,#1
000980  1c49              ADDS     r1,r1,#1
000982  f8541021          LDR      r1,[r4,r1,LSL #2]
000986  4308              ORRS     r0,r0,r1
000988  0069              LSLS     r1,r5,#1
00098a  f8541021          LDR      r1,[r4,r1,LSL #2]
00098e  4308              ORRS     r0,r0,r1
000990  f8c90038          STR      r0,[r9,#0x38]
000994  48b5              LDR      r0,|L1.3180|
000996  5dc7              LDRB     r7,[r0,r7]
;;;756      p_exp_key[ 8 * 2] = CRYPTO_DES_PC2(c, d, a, b); b = rs[b]; a = rs[a];
000998  0070              LSLS     r0,r6,#1
00099a  1cc0              ADDS     r0,r0,#3
00099c  f8540020          LDR      r0,[r4,r0,LSL #2]
0009a0  ea4f0148          LSL      r1,r8,#1
0009a4  1c89              ADDS     r1,r1,#2
0009a6  f8541021          LDR      r1,[r4,r1,LSL #2]
0009aa  4308              ORRS     r0,r0,r1
0009ac  0069              LSLS     r1,r5,#1
0009ae  1c49              ADDS     r1,r1,#1
0009b0  f8541021          LDR      r1,[r4,r1,LSL #2]
0009b4  4308              ORRS     r0,r0,r1
0009b6  0079              LSLS     r1,r7,#1
0009b8  f8541021          LDR      r1,[r4,r1,LSL #2]
0009bc  4308              ORRS     r0,r0,r1
0009be  f8c90040          STR      r0,[r9,#0x40]
0009c2  48aa              LDR      r0,|L1.3180|
0009c4  5d86              LDRB     r6,[r0,r6]
0009c6  f8108008          LDRB     r8,[r0,r8]
;;;757      p_exp_key[ 9 * 2] = CRYPTO_DES_PC2(a, b, c, d); d = rs[d]; c = rs[c];
0009ca  0068              LSLS     r0,r5,#1
0009cc  1cc0              ADDS     r0,r0,#3
0009ce  f8541020          LDR      r1,[r4,r0,LSL #2]
0009d2  0078              LSLS     r0,r7,#1
0009d4  1c80              ADDS     r0,r0,#2
0009d6  f8540020          LDR      r0,[r4,r0,LSL #2]
0009da  4308              ORRS     r0,r0,r1
0009dc  0071              LSLS     r1,r6,#1
0009de  1c49              ADDS     r1,r1,#1
0009e0  f8541021          LDR      r1,[r4,r1,LSL #2]
0009e4  4308              ORRS     r0,r0,r1
0009e6  ea4f0148          LSL      r1,r8,#1
0009ea  f8541021          LDR      r1,[r4,r1,LSL #2]
0009ee  4308              ORRS     r0,r0,r1
0009f0  f8c90048          STR      r0,[r9,#0x48]
0009f4  489d              LDR      r0,|L1.3180|
0009f6  5d45              LDRB     r5,[r0,r5]
0009f8  5dc7              LDRB     r7,[r0,r7]
;;;758      p_exp_key[10 * 2] = CRYPTO_DES_PC2(c, d, a, b); b = rs[b]; a = rs[a];
0009fa  0070              LSLS     r0,r6,#1
0009fc  1cc0              ADDS     r0,r0,#3
0009fe  f8541020          LDR      r1,[r4,r0,LSL #2]
000a02  ea4f0048          LSL      r0,r8,#1
000a06  1c80              ADDS     r0,r0,#2
000a08  f8540020          LDR      r0,[r4,r0,LSL #2]
000a0c  4308              ORRS     r0,r0,r1
000a0e  0069              LSLS     r1,r5,#1
000a10  1c49              ADDS     r1,r1,#1
000a12  f8541021          LDR      r1,[r4,r1,LSL #2]
000a16  4308              ORRS     r0,r0,r1
000a18  0079              LSLS     r1,r7,#1
000a1a  f8541021          LDR      r1,[r4,r1,LSL #2]
000a1e  4308              ORRS     r0,r0,r1
000a20  f8c90050          STR      r0,[r9,#0x50]
000a24  4891              LDR      r0,|L1.3180|
000a26  5d86              LDRB     r6,[r0,r6]
000a28  f8108008          LDRB     r8,[r0,r8]
;;;759      p_exp_key[11 * 2] = CRYPTO_DES_PC2(a, b, c, d); d = rs[d]; c = rs[c];
000a2c  0068              LSLS     r0,r5,#1
000a2e  1cc0              ADDS     r0,r0,#3
000a30  f8541020          LDR      r1,[r4,r0,LSL #2]
000a34  0078              LSLS     r0,r7,#1
000a36  1c80              ADDS     r0,r0,#2
000a38  f8540020          LDR      r0,[r4,r0,LSL #2]
000a3c  4308              ORRS     r0,r0,r1
000a3e  0071              LSLS     r1,r6,#1
000a40  1c49              ADDS     r1,r1,#1
000a42  f8541021          LDR      r1,[r4,r1,LSL #2]
000a46  4308              ORRS     r0,r0,r1
000a48  ea4f0148          LSL      r1,r8,#1
000a4c  f8541021          LDR      r1,[r4,r1,LSL #2]
000a50  4308              ORRS     r0,r0,r1
000a52  f8c90058          STR      r0,[r9,#0x58]
000a56  4885              LDR      r0,|L1.3180|
000a58  5d45              LDRB     r5,[r0,r5]
000a5a  5dc7              LDRB     r7,[r0,r7]
;;;760      p_exp_key[12 * 2] = CRYPTO_DES_PC2(c, d, a, b); b = rs[b]; a = rs[a];
000a5c  0070              LSLS     r0,r6,#1
000a5e  1cc0              ADDS     r0,r0,#3
000a60  f8540020          LDR      r0,[r4,r0,LSL #2]
000a64  ea4f0148          LSL      r1,r8,#1
000a68  1c89              ADDS     r1,r1,#2
000a6a  f8541021          LDR      r1,[r4,r1,LSL #2]
000a6e  4308              ORRS     r0,r0,r1
000a70  0069              LSLS     r1,r5,#1
000a72  1c49              ADDS     r1,r1,#1
000a74  f8541021          LDR      r1,[r4,r1,LSL #2]
000a78  4308              ORRS     r0,r0,r1
000a7a  0079              LSLS     r1,r7,#1
000a7c  f8541021          LDR      r1,[r4,r1,LSL #2]
000a80  4308              ORRS     r0,r0,r1
000a82  f8c90060          STR      r0,[r9,#0x60]
000a86  4879              LDR      r0,|L1.3180|
000a88  5d86              LDRB     r6,[r0,r6]
000a8a  f8108008          LDRB     r8,[r0,r8]
;;;761      p_exp_key[13 * 2] = CRYPTO_DES_PC2(a, b, c, d); d = rs[d]; c = rs[c];
000a8e  0068              LSLS     r0,r5,#1
000a90  1cc0              ADDS     r0,r0,#3
000a92  f8541020          LDR      r1,[r4,r0,LSL #2]
000a96  0078              LSLS     r0,r7,#1
000a98  1c80              ADDS     r0,r0,#2
000a9a  f8540020          LDR      r0,[r4,r0,LSL #2]
000a9e  4308              ORRS     r0,r0,r1
000aa0  0071              LSLS     r1,r6,#1
000aa2  1c49              ADDS     r1,r1,#1
000aa4  f8541021          LDR      r1,[r4,r1,LSL #2]
000aa8  4308              ORRS     r0,r0,r1
000aaa  ea4f0148          LSL      r1,r8,#1
000aae  f8541021          LDR      r1,[r4,r1,LSL #2]
000ab2  4308              ORRS     r0,r0,r1
000ab4  f8c90068          STR      r0,[r9,#0x68]
000ab8  486c              LDR      r0,|L1.3180|
000aba  5d45              LDRB     r5,[r0,r5]
000abc  5dc7              LDRB     r7,[r0,r7]
;;;762      p_exp_key[14 * 2] = CRYPTO_DES_PC2(c, d, a, b); b = rs[b];
000abe  0070              LSLS     r0,r6,#1
000ac0  1cc0              ADDS     r0,r0,#3
000ac2  f8540020          LDR      r0,[r4,r0,LSL #2]
000ac6  ea4f0148          LSL      r1,r8,#1
000aca  1c89              ADDS     r1,r1,#2
000acc  f8541021          LDR      r1,[r4,r1,LSL #2]
000ad0  4308              ORRS     r0,r0,r1
000ad2  0069              LSLS     r1,r5,#1
000ad4  1c49              ADDS     r1,r1,#1
000ad6  f8541021          LDR      r1,[r4,r1,LSL #2]
000ada  4308              ORRS     r0,r0,r1
000adc  0079              LSLS     r1,r7,#1
000ade  f8541021          LDR      r1,[r4,r1,LSL #2]
000ae2  4308              ORRS     r0,r0,r1
000ae4  f8c90070          STR      r0,[r9,#0x70]
000ae8  4860              LDR      r0,|L1.3180|
000aea  5d86              LDRB     r6,[r0,r6]
;;;763      p_exp_key[15 * 2] = CRYPTO_DES_PC2(b, c, d, a);
000aec  ea4f0048          LSL      r0,r8,#1
000af0  1cc0              ADDS     r0,r0,#3
000af2  f8540020          LDR      r0,[r4,r0,LSL #2]
000af6  0069              LSLS     r1,r5,#1
000af8  1c89              ADDS     r1,r1,#2
000afa  f8541021          LDR      r1,[r4,r1,LSL #2]
000afe  4308              ORRS     r0,r0,r1
000b00  0079              LSLS     r1,r7,#1
000b02  1c49              ADDS     r1,r1,#1
000b04  f8541021          LDR      r1,[r4,r1,LSL #2]
000b08  4308              ORRS     r0,r0,r1
000b0a  0071              LSLS     r1,r6,#1
000b0c  f8541021          LDR      r1,[r4,r1,LSL #2]
000b10  4308              ORRS     r0,r0,r1
000b12  f8c90078          STR      r0,[r9,#0x78]
;;;764    
;;;765      /* Skip to next table set.                                                  */
;;;766      ptr += 512;
000b16  f5046400          ADD      r4,r4,#0x800
;;;767    
;;;768      d = p_key[0]; d &= 0xe0; d >>= 4; d |= p_key[4] & 0xf0; d = pc1[d + 1];
000b1a  f89a5000          LDRB     r5,[r10,#0]
000b1e  f00505e0          AND      r5,r5,#0xe0
000b22  092d              LSRS     r5,r5,#4
000b24  f89a0004          LDRB     r0,[r10,#4]
000b28  f00000f0          AND      r0,r0,#0xf0
000b2c  4305              ORRS     r5,r5,r0
000b2e  4950              LDR      r1,|L1.3184|
000b30  1c68              ADDS     r0,r5,#1
000b32  5c0d              LDRB     r5,[r1,r0]
;;;769      c = p_key[1]; c &= 0xe0; c >>= 4; c |= p_key[5] & 0xf0; c = pc1[c + 1];
000b34  f89a7001          LDRB     r7,[r10,#1]
000b38  f00707e0          AND      r7,r7,#0xe0
000b3c  093f              LSRS     r7,r7,#4
000b3e  f89a0005          LDRB     r0,[r10,#5]
000b42  f00000f0          AND      r0,r0,#0xf0
000b46  4307              ORRS     r7,r7,r0
000b48  1c78              ADDS     r0,r7,#1
000b4a  5c0f              LDRB     r7,[r1,r0]
;;;770      b = p_key[2]; b &= 0xe0; b >>= 4; b |= p_key[6] & 0xf0; b = pc1[b + 1];
000b4c  f89a6002          LDRB     r6,[r10,#2]
000b50  f00606e0          AND      r6,r6,#0xe0
000b54  0936              LSRS     r6,r6,#4
000b56  f89a0006          LDRB     r0,[r10,#6]
000b5a  f00000f0          AND      r0,r0,#0xf0
000b5e  4306              ORRS     r6,r6,r0
000b60  1c70              ADDS     r0,r6,#1
000b62  5c0e              LDRB     r6,[r1,r0]
;;;771      a = p_key[3]; a &= 0xe0; a >>= 4; a |= p_key[7] & 0xf0; a = pc1[a + 1];
000b64  f89a8003          LDRB     r8,[r10,#3]
000b68  f00808e0          AND      r8,r8,#0xe0
000b6c  ea4f1818          LSR      r8,r8,#4
000b70  f89a0007          LDRB     r0,[r10,#7]
000b74  f00000f0          AND      r0,r0,#0xf0
000b78  ea400808          ORR      r8,r0,r8
000b7c  f1080001          ADD      r0,r8,#1
000b80  f8118000          LDRB     r8,[r1,r0]
;;;772    
;;;773      p_exp_key[ 0 * 2 + 1] = CRYPTO_DES_PC2(a, b, c, d); d = rs[d];
000b84  0068              LSLS     r0,r5,#1
000b86  1cc0              ADDS     r0,r0,#3
000b88  f8541020          LDR      r1,[r4,r0,LSL #2]
000b8c  0078              LSLS     r0,r7,#1
000b8e  1c80              ADDS     r0,r0,#2
000b90  f8540020          LDR      r0,[r4,r0,LSL #2]
000b94  4308              ORRS     r0,r0,r1
000b96  0071              LSLS     r1,r6,#1
000b98  1c49              ADDS     r1,r1,#1
000b9a  f8541021          LDR      r1,[r4,r1,LSL #2]
000b9e  4308              ORRS     r0,r0,r1
000ba0  ea4f0148          LSL      r1,r8,#1
000ba4  f8541021          LDR      r1,[r4,r1,LSL #2]
000ba8  4308              ORRS     r0,r0,r1
000baa  f8c90004          STR      r0,[r9,#4]
000bae  482f              LDR      r0,|L1.3180|
000bb0  5d45              LDRB     r5,[r0,r5]
;;;774      p_exp_key[ 1 * 2 + 1] = CRYPTO_DES_PC2(d, a, b, c); c = rs[c]; b = rs[b];
000bb2  0078              LSLS     r0,r7,#1
000bb4  1cc0              ADDS     r0,r0,#3
000bb6  f8541020          LDR      r1,[r4,r0,LSL #2]
000bba  0070              LSLS     r0,r6,#1
000bbc  1c80              ADDS     r0,r0,#2
000bbe  f8540020          LDR      r0,[r4,r0,LSL #2]
000bc2  4308              ORRS     r0,r0,r1
000bc4  ea4f0148          LSL      r1,r8,#1
000bc8  1c49              ADDS     r1,r1,#1
000bca  f8541021          LDR      r1,[r4,r1,LSL #2]
000bce  4308              ORRS     r0,r0,r1
000bd0  0069              LSLS     r1,r5,#1
000bd2  f8541021          LDR      r1,[r4,r1,LSL #2]
000bd6  4308              ORRS     r0,r0,r1
000bd8  f8c9000c          STR      r0,[r9,#0xc]
000bdc  4823              LDR      r0,|L1.3180|
000bde  5dc7              LDRB     r7,[r0,r7]
000be0  5d86              LDRB     r6,[r0,r6]
;;;775      p_exp_key[ 2 * 2 + 1] = CRYPTO_DES_PC2(b, c, d, a); a = rs[a]; d = rs[d];
000be2  ea4f0048          LSL      r0,r8,#1
000be6  1cc0              ADDS     r0,r0,#3
000be8  f8541020          LDR      r1,[r4,r0,LSL #2]
000bec  0068              LSLS     r0,r5,#1
000bee  1c80              ADDS     r0,r0,#2
000bf0  f8540020          LDR      r0,[r4,r0,LSL #2]
000bf4  4308              ORRS     r0,r0,r1
000bf6  0079              LSLS     r1,r7,#1
000bf8  1c49              ADDS     r1,r1,#1
000bfa  f8541021          LDR      r1,[r4,r1,LSL #2]
000bfe  4308              ORRS     r0,r0,r1
000c00  0071              LSLS     r1,r6,#1
000c02  f8541021          LDR      r1,[r4,r1,LSL #2]
000c06  4308              ORRS     r0,r0,r1
000c08  f8c90014          STR      r0,[r9,#0x14]
000c0c  4817              LDR      r0,|L1.3180|
000c0e  f8108008          LDRB     r8,[r0,r8]
000c12  5d45              LDRB     r5,[r0,r5]
;;;776      p_exp_key[ 3 * 2 + 1] = CRYPTO_DES_PC2(d, a, b, c); c = rs[c]; b = rs[b];
000c14  0078              LSLS     r0,r7,#1
000c16  1cc0              ADDS     r0,r0,#3
000c18  f8540020          LDR      r0,[r4,r0,LSL #2]
000c1c  0071              LSLS     r1,r6,#1
000c1e  1c89              ADDS     r1,r1,#2
000c20  f8541021          LDR      r1,[r4,r1,LSL #2]
000c24  4308              ORRS     r0,r0,r1
000c26  ea4f0148          LSL      r1,r8,#1
000c2a  1c49              ADDS     r1,r1,#1
000c2c  f8541021          LDR      r1,[r4,r1,LSL #2]
000c30  4308              ORRS     r0,r0,r1
000c32  0069              LSLS     r1,r5,#1
000c34  f8541021          LDR      r1,[r4,r1,LSL #2]
000c38  4308              ORRS     r0,r0,r1
000c3a  f8c9001c          STR      r0,[r9,#0x1c]
000c3e  480b              LDR      r0,|L1.3180|
000c40  5dc7              LDRB     r7,[r0,r7]
000c42  5d86              LDRB     r6,[r0,r6]
;;;777      p_exp_key[ 4 * 2 + 1] = CRYPTO_DES_PC2(b, c, d, a); a = rs[a]; d = rs[d];
000c44  ea4f0048          LSL      r0,r8,#1
000c48  1cc0              ADDS     r0,r0,#3
000c4a  f8541020          LDR      r1,[r4,r0,LSL #2]
000c4e  0068              LSLS     r0,r5,#1
000c50  1c80              ADDS     r0,r0,#2
000c52  f8540020          LDR      r0,[r4,r0,LSL #2]
000c56  4308              ORRS     r0,r0,r1
000c58  0079              LSLS     r1,r7,#1
000c5a  1c49              ADDS     r1,r1,#1
000c5c  f8541021          LDR      r1,[r4,r1,LSL #2]
000c60  4308              ORRS     r0,r0,r1
000c62  0071              LSLS     r1,r6,#1
000c64  f8541021          LDR      r1,[r4,r1,LSL #2]
000c68  4308              ORRS     r0,r0,r1
000c6a  e003              B        |L1.3188|
                  |L1.3180|
                          DCD      ||rs||
                  |L1.3184|
                          DCD      pc1
                  |L1.3188|
000c74  f8c90024          STR      r0,[r9,#0x24]
000c78  48ff              LDR      r0,|L1.4216|
000c7a  f8108008          LDRB     r8,[r0,r8]
000c7e  5d45              LDRB     r5,[r0,r5]
;;;778      p_exp_key[ 5 * 2 + 1] = CRYPTO_DES_PC2(d, a, b, c); c = rs[c]; b = rs[b];
000c80  0078              LSLS     r0,r7,#1
000c82  1cc0              ADDS     r0,r0,#3
000c84  f8540020          LDR      r0,[r4,r0,LSL #2]
000c88  0071              LSLS     r1,r6,#1
000c8a  1c89              ADDS     r1,r1,#2
000c8c  f8541021          LDR      r1,[r4,r1,LSL #2]
000c90  4308              ORRS     r0,r0,r1
000c92  ea4f0148          LSL      r1,r8,#1
000c96  1c49              ADDS     r1,r1,#1
000c98  f8541021          LDR      r1,[r4,r1,LSL #2]
000c9c  4308              ORRS     r0,r0,r1
000c9e  0069              LSLS     r1,r5,#1
000ca0  f8541021          LDR      r1,[r4,r1,LSL #2]
000ca4  4308              ORRS     r0,r0,r1
000ca6  f8c9002c          STR      r0,[r9,#0x2c]
000caa  48f3              LDR      r0,|L1.4216|
000cac  5dc7              LDRB     r7,[r0,r7]
000cae  5d86              LDRB     r6,[r0,r6]
;;;779      p_exp_key[ 6 * 2 + 1] = CRYPTO_DES_PC2(b, c, d, a); a = rs[a]; d = rs[d];
000cb0  ea4f0048          LSL      r0,r8,#1
000cb4  1cc0              ADDS     r0,r0,#3
000cb6  f8540020          LDR      r0,[r4,r0,LSL #2]
000cba  0069              LSLS     r1,r5,#1
000cbc  1c89              ADDS     r1,r1,#2
000cbe  f8541021          LDR      r1,[r4,r1,LSL #2]
000cc2  4308              ORRS     r0,r0,r1
000cc4  0079              LSLS     r1,r7,#1
000cc6  1c49              ADDS     r1,r1,#1
000cc8  f8541021          LDR      r1,[r4,r1,LSL #2]
000ccc  4308              ORRS     r0,r0,r1
000cce  0071              LSLS     r1,r6,#1
000cd0  f8541021          LDR      r1,[r4,r1,LSL #2]
000cd4  4308              ORRS     r0,r0,r1
000cd6  f8c90034          STR      r0,[r9,#0x34]
000cda  48e7              LDR      r0,|L1.4216|
000cdc  f8108008          LDRB     r8,[r0,r8]
000ce0  5d45              LDRB     r5,[r0,r5]
;;;780      p_exp_key[ 7 * 2 + 1] = CRYPTO_DES_PC2(d, a, b, c); c = rs[c];
000ce2  0078              LSLS     r0,r7,#1
000ce4  1cc0              ADDS     r0,r0,#3
000ce6  f8540020          LDR      r0,[r4,r0,LSL #2]
000cea  0071              LSLS     r1,r6,#1
000cec  1c89              ADDS     r1,r1,#2
000cee  f8541021          LDR      r1,[r4,r1,LSL #2]
000cf2  4308              ORRS     r0,r0,r1
000cf4  ea4f0148          LSL      r1,r8,#1
000cf8  1c49              ADDS     r1,r1,#1
000cfa  f8541021          LDR      r1,[r4,r1,LSL #2]
000cfe  4308              ORRS     r0,r0,r1
000d00  0069              LSLS     r1,r5,#1
000d02  f8541021          LDR      r1,[r4,r1,LSL #2]
000d06  4308              ORRS     r0,r0,r1
000d08  f8c9003c          STR      r0,[r9,#0x3c]
000d0c  48da              LDR      r0,|L1.4216|
000d0e  5dc7              LDRB     r7,[r0,r7]
;;;781      p_exp_key[ 8 * 2 + 1] = CRYPTO_DES_PC2(c, d, a, b); b = rs[b]; a = rs[a];
000d10  0070              LSLS     r0,r6,#1
000d12  1cc0              ADDS     r0,r0,#3
000d14  f8541020          LDR      r1,[r4,r0,LSL #2]
000d18  ea4f0048          LSL      r0,r8,#1
000d1c  1c80              ADDS     r0,r0,#2
000d1e  f8540020          LDR      r0,[r4,r0,LSL #2]
000d22  4308              ORRS     r0,r0,r1
000d24  0069              LSLS     r1,r5,#1
000d26  1c49              ADDS     r1,r1,#1
000d28  f8541021          LDR      r1,[r4,r1,LSL #2]
000d2c  4308              ORRS     r0,r0,r1
000d2e  0079              LSLS     r1,r7,#1
000d30  f8541021          LDR      r1,[r4,r1,LSL #2]
000d34  4308              ORRS     r0,r0,r1
000d36  f8c90044          STR      r0,[r9,#0x44]
000d3a  48cf              LDR      r0,|L1.4216|
000d3c  5d86              LDRB     r6,[r0,r6]
000d3e  f8108008          LDRB     r8,[r0,r8]
;;;782      p_exp_key[ 9 * 2 + 1] = CRYPTO_DES_PC2(a, b, c, d); d = rs[d]; c = rs[c];
000d42  0068              LSLS     r0,r5,#1
000d44  1cc0              ADDS     r0,r0,#3
000d46  f8541020          LDR      r1,[r4,r0,LSL #2]
000d4a  0078              LSLS     r0,r7,#1
000d4c  1c80              ADDS     r0,r0,#2
000d4e  f8540020          LDR      r0,[r4,r0,LSL #2]
000d52  4308              ORRS     r0,r0,r1
000d54  0071              LSLS     r1,r6,#1
000d56  1c49              ADDS     r1,r1,#1
000d58  f8541021          LDR      r1,[r4,r1,LSL #2]
000d5c  4308              ORRS     r0,r0,r1
000d5e  ea4f0148          LSL      r1,r8,#1
000d62  f8541021          LDR      r1,[r4,r1,LSL #2]
000d66  4308              ORRS     r0,r0,r1
000d68  f8c9004c          STR      r0,[r9,#0x4c]
000d6c  48c2              LDR      r0,|L1.4216|
000d6e  5d45              LDRB     r5,[r0,r5]
000d70  5dc7              LDRB     r7,[r0,r7]
;;;783      p_exp_key[10 * 2 + 1] = CRYPTO_DES_PC2(c, d, a, b); b = rs[b]; a = rs[a];
000d72  0070              LSLS     r0,r6,#1
000d74  1cc0              ADDS     r0,r0,#3
000d76  f8541020          LDR      r1,[r4,r0,LSL #2]
000d7a  ea4f0048          LSL      r0,r8,#1
000d7e  1c80              ADDS     r0,r0,#2
000d80  f8540020          LDR      r0,[r4,r0,LSL #2]
000d84  4308              ORRS     r0,r0,r1
000d86  0069              LSLS     r1,r5,#1
000d88  1c49              ADDS     r1,r1,#1
000d8a  f8541021          LDR      r1,[r4,r1,LSL #2]
000d8e  4308              ORRS     r0,r0,r1
000d90  0079              LSLS     r1,r7,#1
000d92  f8541021          LDR      r1,[r4,r1,LSL #2]
000d96  4308              ORRS     r0,r0,r1
000d98  f8c90054          STR      r0,[r9,#0x54]
000d9c  48b6              LDR      r0,|L1.4216|
000d9e  5d86              LDRB     r6,[r0,r6]
000da0  f8108008          LDRB     r8,[r0,r8]
;;;784      p_exp_key[11 * 2 + 1] = CRYPTO_DES_PC2(a, b, c, d); d = rs[d]; c = rs[c];
000da4  0068              LSLS     r0,r5,#1
000da6  1cc0              ADDS     r0,r0,#3
000da8  f8540020          LDR      r0,[r4,r0,LSL #2]
000dac  0079              LSLS     r1,r7,#1
000dae  1c89              ADDS     r1,r1,#2
000db0  f8541021          LDR      r1,[r4,r1,LSL #2]
000db4  4308              ORRS     r0,r0,r1
000db6  0071              LSLS     r1,r6,#1
000db8  1c49              ADDS     r1,r1,#1
000dba  f8541021          LDR      r1,[r4,r1,LSL #2]
000dbe  4308              ORRS     r0,r0,r1
000dc0  ea4f0148          LSL      r1,r8,#1
000dc4  f8541021          LDR      r1,[r4,r1,LSL #2]
000dc8  4308              ORRS     r0,r0,r1
000dca  f8c9005c          STR      r0,[r9,#0x5c]
000dce  48aa              LDR      r0,|L1.4216|
000dd0  5d45              LDRB     r5,[r0,r5]
000dd2  5dc7              LDRB     r7,[r0,r7]
;;;785      p_exp_key[12 * 2 + 1] = CRYPTO_DES_PC2(c, d, a, b); b = rs[b]; a = rs[a];
000dd4  0070              LSLS     r0,r6,#1
000dd6  1cc0              ADDS     r0,r0,#3
000dd8  f8540020          LDR      r0,[r4,r0,LSL #2]
000ddc  ea4f0148          LSL      r1,r8,#1
000de0  1c89              ADDS     r1,r1,#2
000de2  f8541021          LDR      r1,[r4,r1,LSL #2]
000de6  4308              ORRS     r0,r0,r1
000de8  0069              LSLS     r1,r5,#1
000dea  1c49              ADDS     r1,r1,#1
000dec  f8541021          LDR      r1,[r4,r1,LSL #2]
000df0  4308              ORRS     r0,r0,r1
000df2  0079              LSLS     r1,r7,#1
000df4  f8541021          LDR      r1,[r4,r1,LSL #2]
000df8  4308              ORRS     r0,r0,r1
000dfa  f8c90064          STR      r0,[r9,#0x64]
000dfe  489e              LDR      r0,|L1.4216|
000e00  5d86              LDRB     r6,[r0,r6]
000e02  f8108008          LDRB     r8,[r0,r8]
;;;786      p_exp_key[13 * 2 + 1] = CRYPTO_DES_PC2(a, b, c, d); d = rs[d]; c = rs[c];
000e06  0068              LSLS     r0,r5,#1
000e08  1cc0              ADDS     r0,r0,#3
000e0a  f8541020          LDR      r1,[r4,r0,LSL #2]
000e0e  0078              LSLS     r0,r7,#1
000e10  1c80              ADDS     r0,r0,#2
000e12  f8540020          LDR      r0,[r4,r0,LSL #2]
000e16  4308              ORRS     r0,r0,r1
000e18  0071              LSLS     r1,r6,#1
000e1a  1c49              ADDS     r1,r1,#1
000e1c  f8541021          LDR      r1,[r4,r1,LSL #2]
000e20  4308              ORRS     r0,r0,r1
000e22  ea4f0148          LSL      r1,r8,#1
000e26  f8541021          LDR      r1,[r4,r1,LSL #2]
000e2a  4308              ORRS     r0,r0,r1
000e2c  f8c9006c          STR      r0,[r9,#0x6c]
000e30  4891              LDR      r0,|L1.4216|
000e32  5d45              LDRB     r5,[r0,r5]
000e34  5dc7              LDRB     r7,[r0,r7]
;;;787      p_exp_key[14 * 2 + 1] = CRYPTO_DES_PC2(c, d, a, b); b = rs[b];
000e36  0070              LSLS     r0,r6,#1
000e38  1cc0              ADDS     r0,r0,#3
000e3a  f8541020          LDR      r1,[r4,r0,LSL #2]
000e3e  ea4f0048          LSL      r0,r8,#1
000e42  1c80              ADDS     r0,r0,#2
000e44  f8540020          LDR      r0,[r4,r0,LSL #2]
000e48  4308              ORRS     r0,r0,r1
000e4a  0069              LSLS     r1,r5,#1
000e4c  1c49              ADDS     r1,r1,#1
000e4e  f8541021          LDR      r1,[r4,r1,LSL #2]
000e52  4308              ORRS     r0,r0,r1
000e54  0079              LSLS     r1,r7,#1
000e56  f8541021          LDR      r1,[r4,r1,LSL #2]
000e5a  4308              ORRS     r0,r0,r1
000e5c  f8c90074          STR      r0,[r9,#0x74]
000e60  4885              LDR      r0,|L1.4216|
000e62  5d86              LDRB     r6,[r0,r6]
;;;788      p_exp_key[15 * 2 + 1] = CRYPTO_DES_PC2(b, c, d, a);
000e64  ea4f0048          LSL      r0,r8,#1
000e68  1cc0              ADDS     r0,r0,#3
000e6a  f8540020          LDR      r0,[r4,r0,LSL #2]
000e6e  0069              LSLS     r1,r5,#1
000e70  1c89              ADDS     r1,r1,#2
000e72  f8541021          LDR      r1,[r4,r1,LSL #2]
000e76  4308              ORRS     r0,r0,r1
000e78  0079              LSLS     r1,r7,#1
000e7a  1c49              ADDS     r1,r1,#1
000e7c  f8541021          LDR      r1,[r4,r1,LSL #2]
000e80  4308              ORRS     r0,r0,r1
000e82  0071              LSLS     r1,r6,#1
000e84  f8541021          LDR      r1,[r4,r1,LSL #2]
000e88  4308              ORRS     r0,r0,r1
000e8a  f8c9007c          STR      r0,[r9,#0x7c]
;;;789    
;;;790      /* Fixup: 2413 5768 -> 1357 2468.                                           */
;;;791      for (d = 0; d < 16; ++d) {
000e8e  2500              MOVS     r5,#0
000e90  e01a              B        |L1.3784|
                  |L1.3730|
;;;792        a  = p_exp_key[2 * d + 0];
000e92  0068              LSLS     r0,r5,#1
000e94  f8598020          LDR      r8,[r9,r0,LSL #2]
;;;793        b  = p_exp_key[2 * d + 1];
000e98  0068              LSLS     r0,r5,#1
000e9a  1c40              ADDS     r0,r0,#1
000e9c  f8596020          LDR      r6,[r9,r0,LSL #2]
;;;794        c  = a ^ b;
000ea0  ea880706          EOR      r7,r8,r6
;;;795        c &= 0xffff0000;
000ea4  f36f070f          BFC      r7,#0,#16
;;;796        a ^= c;
000ea8  ea880807          EOR      r8,r8,r7
;;;797        b ^= c;
000eac  407e              EORS     r6,r6,r7
;;;798        ROL(b, 18);
000eae  2112              MOVS     r1,#0x12
000eb0  4630              MOV      r0,r6
000eb2  f7fffffe          BL       rol32
000eb6  4606              MOV      r6,r0
;;;799        p_exp_key[2 * d + 0] = a;
000eb8  0068              LSLS     r0,r5,#1
000eba  f8498020          STR      r8,[r9,r0,LSL #2]
;;;800        p_exp_key[2 * d + 1] = b;
000ebe  0068              LSLS     r0,r5,#1
000ec0  1c40              ADDS     r0,r0,#1
000ec2  f8496020          STR      r6,[r9,r0,LSL #2]
000ec6  1c6d              ADDS     r5,r5,#1              ;791
                  |L1.3784|
000ec8  2d10              CMP      r5,#0x10              ;791
000eca  d3e2              BCC      |L1.3730|
;;;801      }
;;;802    }
000ecc  e8bd87f0          POP      {r4-r10,pc}
;;;803    
                          ENDP

                  crypto_des3_set_key PROC
;;;825    int
;;;826    crypto_des3_set_key(crypto_des3_ctx_t*   p_ctx,
000ed0  e92d41f0          PUSH     {r4-r8,lr}
;;;827                        const unsigned char* p_key,
;;;828                        unsigned long        key_len) {
000ed4  4604              MOV      r4,r0
000ed6  460d              MOV      r5,r1
000ed8  4617              MOV      r7,r2
;;;829      unsigned long* p_exp_key = p_ctx->expkey;
000eda  4626              MOV      r6,r4
;;;830    
;;;831    
;;;832      crypto_des_expand_key(p_exp_key, p_key);
000edc  4629              MOV      r1,r5
000ede  4630              MOV      r0,r6
000ee0  f7fffffe          BL       crypto_des_expand_key
;;;833      p_exp_key += CRYPTO_DES_EXPKEY_WORDS;
000ee4  3680              ADDS     r6,r6,#0x80
;;;834      p_key     += CRYPTO_DES_KEY_SIZE;
000ee6  3508              ADDS     r5,r5,#8
;;;835      crypto_des3_expand_key(p_exp_key, p_key);
000ee8  4629              MOV      r1,r5
000eea  4630              MOV      r0,r6
000eec  f7fffffe          BL       crypto_des3_expand_key
;;;836      p_exp_key += CRYPTO_DES_EXPKEY_WORDS;
000ef0  3680              ADDS     r6,r6,#0x80
;;;837      p_key     += CRYPTO_DES_KEY_SIZE;
000ef2  3508              ADDS     r5,r5,#8
;;;838      crypto_des_expand_key(p_exp_key, p_key);
000ef4  4629              MOV      r1,r5
000ef6  4630              MOV      r0,r6
000ef8  f7fffffe          BL       crypto_des_expand_key
;;;839    
;;;840      return (0);
000efc  2000              MOVS     r0,#0
;;;841    }
000efe  e8bd81f0          POP      {r4-r8,pc}
;;;842    
                          ENDP

                  crypto_des3_encrypt PROC
;;;854    void
;;;855    crypto_des3_encrypt(const crypto_des3_ctx_t* p_ctx,
000f02  e92d4ff7          PUSH     {r0-r2,r4-r11,lr}
;;;856                        unsigned char*           p_dst,
;;;857                        const unsigned char*     p_src) {
000f06  b082              SUB      sp,sp,#8
000f08  4692              MOV      r10,r2
;;;858      unsigned long  i;
;;;859      unsigned long  l;
;;;860      unsigned long  r;
;;;861      unsigned long  a;
;;;862      unsigned long  b;
;;;863      unsigned long*       p_dst_u32 = (      unsigned long* )p_dst;
000f0a  f8ddb00c          LDR      r11,[sp,#0xc]
;;;864      const unsigned long* p_src_u32 = (const unsigned long* )p_src;
000f0e  f8cda004          STR      r10,[sp,#4]
;;;865      const unsigned long* p_exp_key = p_ctx->expkey;
000f12  f8dd8008          LDR      r8,[sp,#8]
;;;866    
;;;867    
;;;868      l = le32_to_cpu(p_src_u32[0]);
000f16  f8dda004          LDR      r10,[sp,#4]
000f1a  f8da0000          LDR      r0,[r10,#0]
000f1e  f7fffffe          BL       le32_to_cpu
000f22  4604              MOV      r4,r0
;;;869      r = le32_to_cpu(p_src_u32[1]);
000f24  f8dda004          LDR      r10,[sp,#4]
000f28  f8da0004          LDR      r0,[r10,#4]
000f2c  f7fffffe          BL       le32_to_cpu
000f30  4605              MOV      r5,r0
;;;870    
;;;871      IP(l, r, a);
000f32  bf00              NOP      
000f34  2104              MOVS     r1,#4
000f36  4628              MOV      r0,r5
000f38  f7fffffe          BL       rol32
000f3c  4605              MOV      r5,r0
000f3e  4626              MOV      r6,r4
000f40  406c              EORS     r4,r4,r5
000f42  f00434f0          AND      r4,r4,#0xf0f0f0f0
000f46  4065              EORS     r5,r5,r4
000f48  4074              EORS     r4,r4,r6
000f4a  210c              MOVS     r1,#0xc
000f4c  4628              MOV      r0,r5
000f4e  f7fffffe          BL       rol32
000f52  4605              MOV      r5,r0
000f54  4626              MOV      r6,r4
000f56  406c              EORS     r4,r4,r5
000f58  f36f040f          BFC      r4,#0,#16
000f5c  4065              EORS     r5,r5,r4
000f5e  4074              EORS     r4,r4,r6
000f60  210e              MOVS     r1,#0xe
000f62  4628              MOV      r0,r5
000f64  f7fffffe          BL       ror32
000f68  4605              MOV      r5,r0
000f6a  4626              MOV      r6,r4
000f6c  406c              EORS     r4,r4,r5
000f6e  f00434cc          AND      r4,r4,#0xcccccccc
000f72  4065              EORS     r5,r5,r4
000f74  4074              EORS     r4,r4,r6
000f76  2106              MOVS     r1,#6
000f78  4628              MOV      r0,r5
000f7a  f7fffffe          BL       rol32
000f7e  4605              MOV      r5,r0
000f80  4626              MOV      r6,r4
000f82  406c              EORS     r4,r4,r5
000f84  f00424ff          AND      r4,r4,#0xff00ff00
000f88  4065              EORS     r5,r5,r4
000f8a  4074              EORS     r4,r4,r6
000f8c  2107              MOVS     r1,#7
000f8e  4628              MOV      r0,r5
000f90  f7fffffe          BL       ror32
000f94  4605              MOV      r5,r0
000f96  4626              MOV      r6,r4
000f98  406c              EORS     r4,r4,r5
000f9a  f00434aa          AND      r4,r4,#0xaaaaaaaa
000f9e  4065              EORS     r5,r5,r4
000fa0  4074              EORS     r4,r4,r6
000fa2  2101              MOVS     r1,#1
000fa4  4620              MOV      r0,r4
000fa6  f7fffffe          BL       rol32
000faa  4604              MOV      r4,r0
000fac  bf00              NOP      
;;;872      for (i = 0; i < 8; i++) {
000fae  f04f0900          MOV      r9,#0
000fb2  e092              B        |L1.4314|
                  |L1.4020|
;;;873        ROUND(l, r, a, b, p_exp_key, 2);
000fb4  bf00              NOP      
000fb6  f8d87000          LDR      r7,[r8,#0]
000fba  f8d86004          LDR      r6,[r8,#4]
000fbe  f1080808          ADD      r8,r8,#8
000fc2  406f              EORS     r7,r7,r5
000fc4  406e              EORS     r6,r6,r5
000fc6  f007373f          AND      r7,r7,#0x3f3f3f3f
000fca  2104              MOVS     r1,#4
000fcc  4630              MOV      r0,r6
000fce  f7fffffe          BL       ror32
000fd2  4606              MOV      r6,r0
000fd4  b2f8              UXTB     r0,r7
000fd6  4929              LDR      r1,|L1.4220|
000fd8  f8510020          LDR      r0,[r1,r0,LSL #2]
000fdc  4044              EORS     r4,r4,r0
000fde  f006363f          AND      r6,r6,#0x3f3f3f3f
000fe2  f3c72007          UBFX     r0,r7,#8,#8
000fe6  4926              LDR      r1,|L1.4224|
000fe8  f8510020          LDR      r0,[r1,r0,LSL #2]
000fec  4044              EORS     r4,r4,r0
000fee  0c3f              LSRS     r7,r7,#16
000ff0  b2f0              UXTB     r0,r6
000ff2  4924              LDR      r1,|L1.4228|
000ff4  f8510020          LDR      r0,[r1,r0,LSL #2]
000ff8  4044              EORS     r4,r4,r0
000ffa  f3c62007          UBFX     r0,r6,#8,#8
000ffe  4922              LDR      r1,|L1.4232|
001000  f8510020          LDR      r0,[r1,r0,LSL #2]
001004  4044              EORS     r4,r4,r0
001006  0c36              LSRS     r6,r6,#16
001008  b2f8              UXTB     r0,r7
00100a  4920              LDR      r1,|L1.4236|
00100c  f8510020          LDR      r0,[r1,r0,LSL #2]
001010  4044              EORS     r4,r4,r0
001012  0a38              LSRS     r0,r7,#8
001014  491e              LDR      r1,|L1.4240|
001016  f8510020          LDR      r0,[r1,r0,LSL #2]
00101a  4044              EORS     r4,r4,r0
00101c  b2f0              UXTB     r0,r6
00101e  491d              LDR      r1,|L1.4244|
001020  f8510020          LDR      r0,[r1,r0,LSL #2]
001024  4044              EORS     r4,r4,r0
001026  0a30              LSRS     r0,r6,#8
001028  491b              LDR      r1,|L1.4248|
00102a  f8510020          LDR      r0,[r1,r0,LSL #2]
00102e  4044              EORS     r4,r4,r0
001030  bf00              NOP      
;;;874        ROUND(r, l, a, b, p_exp_key, 2);
001032  bf00              NOP      
001034  f8d87000          LDR      r7,[r8,#0]
001038  f8d86004          LDR      r6,[r8,#4]
00103c  f1080808          ADD      r8,r8,#8
001040  4067              EORS     r7,r7,r4
001042  4066              EORS     r6,r6,r4
001044  f007373f          AND      r7,r7,#0x3f3f3f3f
001048  2104              MOVS     r1,#4
00104a  4630              MOV      r0,r6
00104c  f7fffffe          BL       ror32
001050  4606              MOV      r6,r0
001052  b2f8              UXTB     r0,r7
001054  4909              LDR      r1,|L1.4220|
001056  f8510020          LDR      r0,[r1,r0,LSL #2]
00105a  4045              EORS     r5,r5,r0
00105c  f006363f          AND      r6,r6,#0x3f3f3f3f
001060  f3c72007          UBFX     r0,r7,#8,#8
001064  4906              LDR      r1,|L1.4224|
001066  f8510020          LDR      r0,[r1,r0,LSL #2]
00106a  4045              EORS     r5,r5,r0
00106c  0c3f              LSRS     r7,r7,#16
00106e  b2f0              UXTB     r0,r6
001070  4904              LDR      r1,|L1.4228|
001072  f8510020          LDR      r0,[r1,r0,LSL #2]
001076  e011              B        |L1.4252|
                  |L1.4216|
                          DCD      ||rs||
                  |L1.4220|
                          DCD      ||S8||
                  |L1.4224|
                          DCD      ||S6||
                  |L1.4228|
                          DCD      ||S7||
                  |L1.4232|
                          DCD      ||S5||
                  |L1.4236|
                          DCD      ||S4||
                  |L1.4240|
                          DCD      ||S2||
                  |L1.4244|
                          DCD      ||S3||
                  |L1.4248|
                          DCD      ||S1||
                  |L1.4252|
00109c  4045              EORS     r5,r5,r0
00109e  f3c62007          UBFX     r0,r6,#8,#8
0010a2  49ff              LDR      r1,|L1.5280|
0010a4  f8510020          LDR      r0,[r1,r0,LSL #2]
0010a8  4045              EORS     r5,r5,r0
0010aa  0c36              LSRS     r6,r6,#16
0010ac  b2f8              UXTB     r0,r7
0010ae  49fd              LDR      r1,|L1.5284|
0010b0  f8510020          LDR      r0,[r1,r0,LSL #2]
0010b4  4045              EORS     r5,r5,r0
0010b6  0a38              LSRS     r0,r7,#8
0010b8  49fb              LDR      r1,|L1.5288|
0010ba  f8510020          LDR      r0,[r1,r0,LSL #2]
0010be  4045              EORS     r5,r5,r0
0010c0  b2f0              UXTB     r0,r6
0010c2  49fa              LDR      r1,|L1.5292|
0010c4  f8510020          LDR      r0,[r1,r0,LSL #2]
0010c8  4045              EORS     r5,r5,r0
0010ca  0a30              LSRS     r0,r6,#8
0010cc  49f8              LDR      r1,|L1.5296|
0010ce  f8510020          LDR      r0,[r1,r0,LSL #2]
0010d2  4045              EORS     r5,r5,r0
0010d4  bf00              NOP      
0010d6  f1090901          ADD      r9,r9,#1              ;872
                  |L1.4314|
0010da  f1b90f08          CMP      r9,#8                 ;872
0010de  f4ffaf69          BCC      |L1.4020|
;;;875      }
;;;876      for (i = 0; i < 8; i++) {
0010e2  f04f0900          MOV      r9,#0
0010e6  e07f              B        |L1.4584|
                  |L1.4328|
;;;877        ROUND(r, l, a, b, p_exp_key, 2);
0010e8  bf00              NOP      
0010ea  f8d87000          LDR      r7,[r8,#0]
0010ee  f8d86004          LDR      r6,[r8,#4]
0010f2  f1080808          ADD      r8,r8,#8
0010f6  4067              EORS     r7,r7,r4
0010f8  4066              EORS     r6,r6,r4
0010fa  f007373f          AND      r7,r7,#0x3f3f3f3f
0010fe  2104              MOVS     r1,#4
001100  4630              MOV      r0,r6
001102  f7fffffe          BL       ror32
001106  4606              MOV      r6,r0
001108  b2f8              UXTB     r0,r7
00110a  49ea              LDR      r1,|L1.5300|
00110c  f8510020          LDR      r0,[r1,r0,LSL #2]
001110  4045              EORS     r5,r5,r0
001112  f006363f          AND      r6,r6,#0x3f3f3f3f
001116  f3c72007          UBFX     r0,r7,#8,#8
00111a  49e7              LDR      r1,|L1.5304|
00111c  f8510020          LDR      r0,[r1,r0,LSL #2]
001120  4045              EORS     r5,r5,r0
001122  0c3f              LSRS     r7,r7,#16
001124  b2f0              UXTB     r0,r6
001126  49e5              LDR      r1,|L1.5308|
001128  f8510020          LDR      r0,[r1,r0,LSL #2]
00112c  4045              EORS     r5,r5,r0
00112e  f3c62007          UBFX     r0,r6,#8,#8
001132  49db              LDR      r1,|L1.5280|
001134  f8510020          LDR      r0,[r1,r0,LSL #2]
001138  4045              EORS     r5,r5,r0
00113a  0c36              LSRS     r6,r6,#16
00113c  b2f8              UXTB     r0,r7
00113e  49d9              LDR      r1,|L1.5284|
001140  f8510020          LDR      r0,[r1,r0,LSL #2]
001144  4045              EORS     r5,r5,r0
001146  0a38              LSRS     r0,r7,#8
001148  49d7              LDR      r1,|L1.5288|
00114a  f8510020          LDR      r0,[r1,r0,LSL #2]
00114e  4045              EORS     r5,r5,r0
001150  b2f0              UXTB     r0,r6
001152  49d6              LDR      r1,|L1.5292|
001154  f8510020          LDR      r0,[r1,r0,LSL #2]
001158  4045              EORS     r5,r5,r0
00115a  0a30              LSRS     r0,r6,#8
00115c  49d4              LDR      r1,|L1.5296|
00115e  f8510020          LDR      r0,[r1,r0,LSL #2]
001162  4045              EORS     r5,r5,r0
001164  bf00              NOP      
;;;878        ROUND(l, r, a, b, p_exp_key, 2);
001166  bf00              NOP      
001168  f8d87000          LDR      r7,[r8,#0]
00116c  f8d86004          LDR      r6,[r8,#4]
001170  f1080808          ADD      r8,r8,#8
001174  406f              EORS     r7,r7,r5
001176  406e              EORS     r6,r6,r5
001178  f007373f          AND      r7,r7,#0x3f3f3f3f
00117c  2104              MOVS     r1,#4
00117e  4630              MOV      r0,r6
001180  f7fffffe          BL       ror32
001184  4606              MOV      r6,r0
001186  b2f8              UXTB     r0,r7
001188  49ca              LDR      r1,|L1.5300|
00118a  f8510020          LDR      r0,[r1,r0,LSL #2]
00118e  4044              EORS     r4,r4,r0
001190  f006363f          AND      r6,r6,#0x3f3f3f3f
001194  f3c72007          UBFX     r0,r7,#8,#8
001198  49c7              LDR      r1,|L1.5304|
00119a  f8510020          LDR      r0,[r1,r0,LSL #2]
00119e  4044              EORS     r4,r4,r0
0011a0  0c3f              LSRS     r7,r7,#16
0011a2  b2f0              UXTB     r0,r6
0011a4  49c5              LDR      r1,|L1.5308|
0011a6  f8510020          LDR      r0,[r1,r0,LSL #2]
0011aa  4044              EORS     r4,r4,r0
0011ac  f3c62007          UBFX     r0,r6,#8,#8
0011b0  49bb              LDR      r1,|L1.5280|
0011b2  f8510020          LDR      r0,[r1,r0,LSL #2]
0011b6  4044              EORS     r4,r4,r0
0011b8  0c36              LSRS     r6,r6,#16
0011ba  b2f8              UXTB     r0,r7
0011bc  49b9              LDR      r1,|L1.5284|
0011be  f8510020          LDR      r0,[r1,r0,LSL #2]
0011c2  4044              EORS     r4,r4,r0
0011c4  0a38              LSRS     r0,r7,#8
0011c6  49b8              LDR      r1,|L1.5288|
0011c8  f8510020          LDR      r0,[r1,r0,LSL #2]
0011cc  4044              EORS     r4,r4,r0
0011ce  b2f0              UXTB     r0,r6
0011d0  49b6              LDR      r1,|L1.5292|
0011d2  f8510020          LDR      r0,[r1,r0,LSL #2]
0011d6  4044              EORS     r4,r4,r0
0011d8  0a30              LSRS     r0,r6,#8
0011da  49b5              LDR      r1,|L1.5296|
0011dc  f8510020          LDR      r0,[r1,r0,LSL #2]
0011e0  4044              EORS     r4,r4,r0
0011e2  bf00              NOP      
0011e4  f1090901          ADD      r9,r9,#1              ;876
                  |L1.4584|
0011e8  f1b90f08          CMP      r9,#8                 ;876
0011ec  f4ffaf7c          BCC      |L1.4328|
;;;879      }
;;;880      for (i = 0; i < 8; i++) {
0011f0  f04f0900          MOV      r9,#0
0011f4  e07f              B        |L1.4854|
                  |L1.4598|
;;;881        ROUND(l, r, a, b, p_exp_key, 2);
0011f6  bf00              NOP      
0011f8  f8d87000          LDR      r7,[r8,#0]
0011fc  f8d86004          LDR      r6,[r8,#4]
001200  f1080808          ADD      r8,r8,#8
001204  406f              EORS     r7,r7,r5
001206  406e              EORS     r6,r6,r5
001208  f007373f          AND      r7,r7,#0x3f3f3f3f
00120c  2104              MOVS     r1,#4
00120e  4630              MOV      r0,r6
001210  f7fffffe          BL       ror32
001214  4606              MOV      r6,r0
001216  b2f8              UXTB     r0,r7
001218  49a6              LDR      r1,|L1.5300|
00121a  f8510020          LDR      r0,[r1,r0,LSL #2]
00121e  4044              EORS     r4,r4,r0
001220  f006363f          AND      r6,r6,#0x3f3f3f3f
001224  f3c72007          UBFX     r0,r7,#8,#8
001228  49a3              LDR      r1,|L1.5304|
00122a  f8510020          LDR      r0,[r1,r0,LSL #2]
00122e  4044              EORS     r4,r4,r0
001230  0c3f              LSRS     r7,r7,#16
001232  b2f0              UXTB     r0,r6
001234  49a1              LDR      r1,|L1.5308|
001236  f8510020          LDR      r0,[r1,r0,LSL #2]
00123a  4044              EORS     r4,r4,r0
00123c  f3c62007          UBFX     r0,r6,#8,#8
001240  4997              LDR      r1,|L1.5280|
001242  f8510020          LDR      r0,[r1,r0,LSL #2]
001246  4044              EORS     r4,r4,r0
001248  0c36              LSRS     r6,r6,#16
00124a  b2f8              UXTB     r0,r7
00124c  4995              LDR      r1,|L1.5284|
00124e  f8510020          LDR      r0,[r1,r0,LSL #2]
001252  4044              EORS     r4,r4,r0
001254  0a38              LSRS     r0,r7,#8
001256  4994              LDR      r1,|L1.5288|
001258  f8510020          LDR      r0,[r1,r0,LSL #2]
00125c  4044              EORS     r4,r4,r0
00125e  b2f0              UXTB     r0,r6
001260  4992              LDR      r1,|L1.5292|
001262  f8510020          LDR      r0,[r1,r0,LSL #2]
001266  4044              EORS     r4,r4,r0
001268  0a30              LSRS     r0,r6,#8
00126a  4991              LDR      r1,|L1.5296|
00126c  f8510020          LDR      r0,[r1,r0,LSL #2]
001270  4044              EORS     r4,r4,r0
001272  bf00              NOP      
;;;882        ROUND(r, l, a, b, p_exp_key, 2);
001274  bf00              NOP      
001276  f8d87000          LDR      r7,[r8,#0]
00127a  f8d86004          LDR      r6,[r8,#4]
00127e  f1080808          ADD      r8,r8,#8
001282  4067              EORS     r7,r7,r4
001284  4066              EORS     r6,r6,r4
001286  f007373f          AND      r7,r7,#0x3f3f3f3f
00128a  2104              MOVS     r1,#4
00128c  4630              MOV      r0,r6
00128e  f7fffffe          BL       ror32
001292  4606              MOV      r6,r0
001294  b2f8              UXTB     r0,r7
001296  4987              LDR      r1,|L1.5300|
001298  f8510020          LDR      r0,[r1,r0,LSL #2]
00129c  4045              EORS     r5,r5,r0
00129e  f006363f          AND      r6,r6,#0x3f3f3f3f
0012a2  f3c72007          UBFX     r0,r7,#8,#8
0012a6  4984              LDR      r1,|L1.5304|
0012a8  f8510020          LDR      r0,[r1,r0,LSL #2]
0012ac  4045              EORS     r5,r5,r0
0012ae  0c3f              LSRS     r7,r7,#16
0012b0  b2f0              UXTB     r0,r6
0012b2  4982              LDR      r1,|L1.5308|
0012b4  f8510020          LDR      r0,[r1,r0,LSL #2]
0012b8  4045              EORS     r5,r5,r0
0012ba  f3c62007          UBFX     r0,r6,#8,#8
0012be  4978              LDR      r1,|L1.5280|
0012c0  f8510020          LDR      r0,[r1,r0,LSL #2]
0012c4  4045              EORS     r5,r5,r0
0012c6  0c36              LSRS     r6,r6,#16
0012c8  b2f8              UXTB     r0,r7
0012ca  4976              LDR      r1,|L1.5284|
0012cc  f8510020          LDR      r0,[r1,r0,LSL #2]
0012d0  4045              EORS     r5,r5,r0
0012d2  0a38              LSRS     r0,r7,#8
0012d4  4974              LDR      r1,|L1.5288|
0012d6  f8510020          LDR      r0,[r1,r0,LSL #2]
0012da  4045              EORS     r5,r5,r0
0012dc  b2f0              UXTB     r0,r6
0012de  4973              LDR      r1,|L1.5292|
0012e0  f8510020          LDR      r0,[r1,r0,LSL #2]
0012e4  4045              EORS     r5,r5,r0
0012e6  0a30              LSRS     r0,r6,#8
0012e8  4971              LDR      r1,|L1.5296|
0012ea  f8510020          LDR      r0,[r1,r0,LSL #2]
0012ee  4045              EORS     r5,r5,r0
0012f0  bf00              NOP      
0012f2  f1090901          ADD      r9,r9,#1              ;880
                  |L1.4854|
0012f6  f1b90f08          CMP      r9,#8                 ;880
0012fa  f4ffaf7c          BCC      |L1.4598|
;;;883      }
;;;884      FP(r, l, a);
0012fe  bf00              NOP      
001300  2101              MOVS     r1,#1
001302  4628              MOV      r0,r5
001304  f7fffffe          BL       ror32
001308  4605              MOV      r5,r0
00130a  462e              MOV      r6,r5
00130c  4065              EORS     r5,r5,r4
00130e  f00535aa          AND      r5,r5,#0xaaaaaaaa
001312  406c              EORS     r4,r4,r5
001314  4075              EORS     r5,r5,r6
001316  2107              MOVS     r1,#7
001318  4620              MOV      r0,r4
00131a  f7fffffe          BL       rol32
00131e  4604              MOV      r4,r0
001320  462e              MOV      r6,r5
001322  4065              EORS     r5,r5,r4
001324  f00525ff          AND      r5,r5,#0xff00ff00
001328  406c              EORS     r4,r4,r5
00132a  4075              EORS     r5,r5,r6
00132c  2106              MOVS     r1,#6
00132e  4620              MOV      r0,r4
001330  f7fffffe          BL       ror32
001334  4604              MOV      r4,r0
001336  462e              MOV      r6,r5
001338  4065              EORS     r5,r5,r4
00133a  f00535cc          AND      r5,r5,#0xcccccccc
00133e  406c              EORS     r4,r4,r5
001340  4075              EORS     r5,r5,r6
001342  210e              MOVS     r1,#0xe
001344  4620              MOV      r0,r4
001346  f7fffffe          BL       rol32
00134a  4604              MOV      r4,r0
00134c  462e              MOV      r6,r5
00134e  4065              EORS     r5,r5,r4
001350  f36f050f          BFC      r5,#0,#16
001354  406c              EORS     r4,r4,r5
001356  4075              EORS     r5,r5,r6
001358  210c              MOVS     r1,#0xc
00135a  4620              MOV      r0,r4
00135c  f7fffffe          BL       ror32
001360  4604              MOV      r4,r0
001362  462e              MOV      r6,r5
001364  4065              EORS     r5,r5,r4
001366  f00535f0          AND      r5,r5,#0xf0f0f0f0
00136a  406c              EORS     r4,r4,r5
00136c  4075              EORS     r5,r5,r6
00136e  2104              MOVS     r1,#4
001370  4620              MOV      r0,r4
001372  f7fffffe          BL       ror32
001376  4604              MOV      r4,r0
001378  bf00              NOP      
;;;885    
;;;886      p_dst_u32[0] = cpu_to_le32(r);
00137a  4628              MOV      r0,r5
00137c  f7fffffe          BL       cpu_to_le32
001380  f8cb0000          STR      r0,[r11,#0]
;;;887      p_dst_u32[1] = cpu_to_le32(l);
001384  4620              MOV      r0,r4
001386  f7fffffe          BL       cpu_to_le32
00138a  f8cb0004          STR      r0,[r11,#4]
;;;888    }
00138e  b005              ADD      sp,sp,#0x14
001390  e8bd8ff0          POP      {r4-r11,pc}
;;;889    
                          ENDP

                  crypto_des3_decrypt PROC
;;;901    void
;;;902    crypto_des3_decrypt(const crypto_des3_ctx_t* p_ctx,
001394  e92d4ff7          PUSH     {r0-r2,r4-r11,lr}
;;;903                        unsigned char*           p_dst,
;;;904                        const unsigned char*     p_src) {
001398  b082              SUB      sp,sp,#8
00139a  4692              MOV      r10,r2
;;;905      unsigned long  i;
;;;906      unsigned long  l;
;;;907      unsigned long  r;
;;;908      unsigned long  a;
;;;909      unsigned long  b;
;;;910      unsigned long*       p_dst_u32 = (      unsigned long* )p_dst;
00139c  f8ddb00c          LDR      r11,[sp,#0xc]
;;;911      const unsigned long* p_src_u32 = (const unsigned long* )p_src;
0013a0  f8cda004          STR      r10,[sp,#4]
;;;912      const unsigned long* p_exp_key = p_ctx->expkey + CRYPTO_DES3_EXPKEY_WORDS - 2;
0013a4  9802              LDR      r0,[sp,#8]
0013a6  f50078bc          ADD      r8,r0,#0x178
;;;913    
;;;914    
;;;915      l = le32_to_cpu(p_src_u32[0]);
0013aa  f8dda004          LDR      r10,[sp,#4]
0013ae  f8da0000          LDR      r0,[r10,#0]
0013b2  f7fffffe          BL       le32_to_cpu
0013b6  4604              MOV      r4,r0
;;;916      r = le32_to_cpu(p_src_u32[1]);
0013b8  f8dda004          LDR      r10,[sp,#4]
0013bc  f8da0004          LDR      r0,[r10,#4]
0013c0  f7fffffe          BL       le32_to_cpu
0013c4  4605              MOV      r5,r0
;;;917    
;;;918      IP(l, r, a);
0013c6  bf00              NOP      
0013c8  2104              MOVS     r1,#4
0013ca  4628              MOV      r0,r5
0013cc  f7fffffe          BL       rol32
0013d0  4605              MOV      r5,r0
0013d2  4626              MOV      r6,r4
0013d4  406c              EORS     r4,r4,r5
0013d6  f00434f0          AND      r4,r4,#0xf0f0f0f0
0013da  4065              EORS     r5,r5,r4
0013dc  4074              EORS     r4,r4,r6
0013de  210c              MOVS     r1,#0xc
0013e0  4628              MOV      r0,r5
0013e2  f7fffffe          BL       rol32
0013e6  4605              MOV      r5,r0
0013e8  4626              MOV      r6,r4
0013ea  406c              EORS     r4,r4,r5
0013ec  f36f040f          BFC      r4,#0,#16
0013f0  4065              EORS     r5,r5,r4
0013f2  4074              EORS     r4,r4,r6
0013f4  210e              MOVS     r1,#0xe
0013f6  4628              MOV      r0,r5
0013f8  f7fffffe          BL       ror32
0013fc  4605              MOV      r5,r0
0013fe  4626              MOV      r6,r4
001400  406c              EORS     r4,r4,r5
001402  f00434cc          AND      r4,r4,#0xcccccccc
001406  4065              EORS     r5,r5,r4
001408  4074              EORS     r4,r4,r6
00140a  2106              MOVS     r1,#6
00140c  4628              MOV      r0,r5
00140e  f7fffffe          BL       rol32
001412  4605              MOV      r5,r0
001414  4626              MOV      r6,r4
001416  406c              EORS     r4,r4,r5
001418  f00424ff          AND      r4,r4,#0xff00ff00
00141c  4065              EORS     r5,r5,r4
00141e  4074              EORS     r4,r4,r6
001420  2107              MOVS     r1,#7
001422  4628              MOV      r0,r5
001424  f7fffffe          BL       ror32
001428  4605              MOV      r5,r0
00142a  4626              MOV      r6,r4
00142c  406c              EORS     r4,r4,r5
00142e  f00434aa          AND      r4,r4,#0xaaaaaaaa
001432  4065              EORS     r5,r5,r4
001434  4074              EORS     r4,r4,r6
001436  2101              MOVS     r1,#1
001438  4620              MOV      r0,r4
00143a  f7fffffe          BL       rol32
00143e  4604              MOV      r4,r0
001440  bf00              NOP      
;;;919      for (i = 0; i < 8; i++) {
001442  f04f0900          MOV      r9,#0
001446  e090              B        |L1.5482|
                  |L1.5192|
;;;920        ROUND(l, r, a, b, p_exp_key, -2);
001448  bf00              NOP      
00144a  f8d87000          LDR      r7,[r8,#0]
00144e  f8d86004          LDR      r6,[r8,#4]
001452  f1a80808          SUB      r8,r8,#8
001456  406f              EORS     r7,r7,r5
001458  406e              EORS     r6,r6,r5
00145a  f007373f          AND      r7,r7,#0x3f3f3f3f
00145e  2104              MOVS     r1,#4
001460  4630              MOV      r0,r6
001462  f7fffffe          BL       ror32
001466  4606              MOV      r6,r0
001468  b2f8              UXTB     r0,r7
00146a  4912              LDR      r1,|L1.5300|
00146c  f8510020          LDR      r0,[r1,r0,LSL #2]
001470  4044              EORS     r4,r4,r0
001472  f006363f          AND      r6,r6,#0x3f3f3f3f
001476  f3c72007          UBFX     r0,r7,#8,#8
00147a  490f              LDR      r1,|L1.5304|
00147c  f8510020          LDR      r0,[r1,r0,LSL #2]
001480  4044              EORS     r4,r4,r0
001482  0c3f              LSRS     r7,r7,#16
001484  b2f0              UXTB     r0,r6
001486  490d              LDR      r1,|L1.5308|
001488  f8510020          LDR      r0,[r1,r0,LSL #2]
00148c  4044              EORS     r4,r4,r0
00148e  f3c62007          UBFX     r0,r6,#8,#8
001492  4903              LDR      r1,|L1.5280|
001494  f8510020          LDR      r0,[r1,r0,LSL #2]
001498  4044              EORS     r4,r4,r0
00149a  0c36              LSRS     r6,r6,#16
00149c  b2f8              UXTB     r0,r7
00149e  e00f              B        |L1.5312|
                  |L1.5280|
                          DCD      ||S5||
                  |L1.5284|
                          DCD      ||S4||
                  |L1.5288|
                          DCD      ||S2||
                  |L1.5292|
                          DCD      ||S3||
                  |L1.5296|
                          DCD      ||S1||
                  |L1.5300|
                          DCD      ||S8||
                  |L1.5304|
                          DCD      ||S6||
                  |L1.5308|
                          DCD      ||S7||
                  |L1.5312|
0014c0  49d8              LDR      r1,|L1.6180|
0014c2  f8510020          LDR      r0,[r1,r0,LSL #2]
0014c6  4044              EORS     r4,r4,r0
0014c8  0a38              LSRS     r0,r7,#8
0014ca  49d7              LDR      r1,|L1.6184|
0014cc  f8510020          LDR      r0,[r1,r0,LSL #2]
0014d0  4044              EORS     r4,r4,r0
0014d2  b2f0              UXTB     r0,r6
0014d4  49d5              LDR      r1,|L1.6188|
0014d6  f8510020          LDR      r0,[r1,r0,LSL #2]
0014da  4044              EORS     r4,r4,r0
0014dc  0a30              LSRS     r0,r6,#8
0014de  49d4              LDR      r1,|L1.6192|
0014e0  f8510020          LDR      r0,[r1,r0,LSL #2]
0014e4  4044              EORS     r4,r4,r0
0014e6  bf00              NOP      
;;;921        ROUND(r, l, a, b, p_exp_key, -2);
0014e8  bf00              NOP      
0014ea  f8d87000          LDR      r7,[r8,#0]
0014ee  f8d86004          LDR      r6,[r8,#4]
0014f2  f1a80808          SUB      r8,r8,#8
0014f6  4067              EORS     r7,r7,r4
0014f8  4066              EORS     r6,r6,r4
0014fa  f007373f          AND      r7,r7,#0x3f3f3f3f
0014fe  2104              MOVS     r1,#4
001500  4630              MOV      r0,r6
001502  f7fffffe          BL       ror32
001506  4606              MOV      r6,r0
001508  b2f8              UXTB     r0,r7
00150a  49ca              LDR      r1,|L1.6196|
00150c  f8510020          LDR      r0,[r1,r0,LSL #2]
001510  4045              EORS     r5,r5,r0
001512  f006363f          AND      r6,r6,#0x3f3f3f3f
001516  f3c72007          UBFX     r0,r7,#8,#8
00151a  49c7              LDR      r1,|L1.6200|
00151c  f8510020          LDR      r0,[r1,r0,LSL #2]
001520  4045              EORS     r5,r5,r0
001522  0c3f              LSRS     r7,r7,#16
001524  b2f0              UXTB     r0,r6
001526  49c5              LDR      r1,|L1.6204|
001528  f8510020          LDR      r0,[r1,r0,LSL #2]
00152c  4045              EORS     r5,r5,r0
00152e  f3c62007          UBFX     r0,r6,#8,#8
001532  49c3              LDR      r1,|L1.6208|
001534  f8510020          LDR      r0,[r1,r0,LSL #2]
001538  4045              EORS     r5,r5,r0
00153a  0c36              LSRS     r6,r6,#16
00153c  b2f8              UXTB     r0,r7
00153e  49b9              LDR      r1,|L1.6180|
001540  f8510020          LDR      r0,[r1,r0,LSL #2]
001544  4045              EORS     r5,r5,r0
001546  0a38              LSRS     r0,r7,#8
001548  49b7              LDR      r1,|L1.6184|
00154a  f8510020          LDR      r0,[r1,r0,LSL #2]
00154e  4045              EORS     r5,r5,r0
001550  b2f0              UXTB     r0,r6
001552  49b6              LDR      r1,|L1.6188|
001554  f8510020          LDR      r0,[r1,r0,LSL #2]
001558  4045              EORS     r5,r5,r0
00155a  0a30              LSRS     r0,r6,#8
00155c  49b4              LDR      r1,|L1.6192|
00155e  f8510020          LDR      r0,[r1,r0,LSL #2]
001562  4045              EORS     r5,r5,r0
001564  bf00              NOP      
001566  f1090901          ADD      r9,r9,#1              ;919
                  |L1.5482|
00156a  f1b90f08          CMP      r9,#8                 ;919
00156e  f4ffaf6b          BCC      |L1.5192|
;;;922      }
;;;923      for (i = 0; i < 8; i++) {
001572  f04f0900          MOV      r9,#0
001576  e07f              B        |L1.5752|
                  |L1.5496|
;;;924        ROUND(r, l, a, b, p_exp_key, -2);
001578  bf00              NOP      
00157a  f8d87000          LDR      r7,[r8,#0]
00157e  f8d86004          LDR      r6,[r8,#4]
001582  f1a80808          SUB      r8,r8,#8
001586  4067              EORS     r7,r7,r4
001588  4066              EORS     r6,r6,r4
00158a  f007373f          AND      r7,r7,#0x3f3f3f3f
00158e  2104              MOVS     r1,#4
001590  4630              MOV      r0,r6
001592  f7fffffe          BL       ror32
001596  4606              MOV      r6,r0
001598  b2f8              UXTB     r0,r7
00159a  49a6              LDR      r1,|L1.6196|
00159c  f8510020          LDR      r0,[r1,r0,LSL #2]
0015a0  4045              EORS     r5,r5,r0
0015a2  f006363f          AND      r6,r6,#0x3f3f3f3f
0015a6  f3c72007          UBFX     r0,r7,#8,#8
0015aa  49a3              LDR      r1,|L1.6200|
0015ac  f8510020          LDR      r0,[r1,r0,LSL #2]
0015b0  4045              EORS     r5,r5,r0
0015b2  0c3f              LSRS     r7,r7,#16
0015b4  b2f0              UXTB     r0,r6
0015b6  49a1              LDR      r1,|L1.6204|
0015b8  f8510020          LDR      r0,[r1,r0,LSL #2]
0015bc  4045              EORS     r5,r5,r0
0015be  f3c62007          UBFX     r0,r6,#8,#8
0015c2  499f              LDR      r1,|L1.6208|
0015c4  f8510020          LDR      r0,[r1,r0,LSL #2]
0015c8  4045              EORS     r5,r5,r0
0015ca  0c36              LSRS     r6,r6,#16
0015cc  b2f8              UXTB     r0,r7
0015ce  4995              LDR      r1,|L1.6180|
0015d0  f8510020          LDR      r0,[r1,r0,LSL #2]
0015d4  4045              EORS     r5,r5,r0
0015d6  0a38              LSRS     r0,r7,#8
0015d8  4993              LDR      r1,|L1.6184|
0015da  f8510020          LDR      r0,[r1,r0,LSL #2]
0015de  4045              EORS     r5,r5,r0
0015e0  b2f0              UXTB     r0,r6
0015e2  4992              LDR      r1,|L1.6188|
0015e4  f8510020          LDR      r0,[r1,r0,LSL #2]
0015e8  4045              EORS     r5,r5,r0
0015ea  0a30              LSRS     r0,r6,#8
0015ec  4990              LDR      r1,|L1.6192|
0015ee  f8510020          LDR      r0,[r1,r0,LSL #2]
0015f2  4045              EORS     r5,r5,r0
0015f4  bf00              NOP      
;;;925        ROUND(l, r, a, b, p_exp_key, -2);
0015f6  bf00              NOP      
0015f8  f8d87000          LDR      r7,[r8,#0]
0015fc  f8d86004          LDR      r6,[r8,#4]
001600  f1a80808          SUB      r8,r8,#8
001604  406f              EORS     r7,r7,r5
001606  406e              EORS     r6,r6,r5
001608  f007373f          AND      r7,r7,#0x3f3f3f3f
00160c  2104              MOVS     r1,#4
00160e  4630              MOV      r0,r6
001610  f7fffffe          BL       ror32
001614  4606              MOV      r6,r0
001616  b2f8              UXTB     r0,r7
001618  4986              LDR      r1,|L1.6196|
00161a  f8510020          LDR      r0,[r1,r0,LSL #2]
00161e  4044              EORS     r4,r4,r0
001620  f006363f          AND      r6,r6,#0x3f3f3f3f
001624  f3c72007          UBFX     r0,r7,#8,#8
001628  4983              LDR      r1,|L1.6200|
00162a  f8510020          LDR      r0,[r1,r0,LSL #2]
00162e  4044              EORS     r4,r4,r0
001630  0c3f              LSRS     r7,r7,#16
001632  b2f0              UXTB     r0,r6
001634  4981              LDR      r1,|L1.6204|
001636  f8510020          LDR      r0,[r1,r0,LSL #2]
00163a  4044              EORS     r4,r4,r0
00163c  f3c62007          UBFX     r0,r6,#8,#8
001640  497f              LDR      r1,|L1.6208|
001642  f8510020          LDR      r0,[r1,r0,LSL #2]
001646  4044              EORS     r4,r4,r0
001648  0c36              LSRS     r6,r6,#16
00164a  b2f8              UXTB     r0,r7
00164c  4975              LDR      r1,|L1.6180|
00164e  f8510020          LDR      r0,[r1,r0,LSL #2]
001652  4044              EORS     r4,r4,r0
001654  0a38              LSRS     r0,r7,#8
001656  4974              LDR      r1,|L1.6184|
001658  f8510020          LDR      r0,[r1,r0,LSL #2]
00165c  4044              EORS     r4,r4,r0
00165e  b2f0              UXTB     r0,r6
001660  4972              LDR      r1,|L1.6188|
001662  f8510020          LDR      r0,[r1,r0,LSL #2]
001666  4044              EORS     r4,r4,r0
001668  0a30              LSRS     r0,r6,#8
00166a  4971              LDR      r1,|L1.6192|
00166c  f8510020          LDR      r0,[r1,r0,LSL #2]
001670  4044              EORS     r4,r4,r0
001672  bf00              NOP      
001674  f1090901          ADD      r9,r9,#1              ;923
                  |L1.5752|
001678  f1b90f08          CMP      r9,#8                 ;923
00167c  f4ffaf7c          BCC      |L1.5496|
;;;926      }
;;;927      for (i = 0; i < 8; i++) {
001680  f04f0900          MOV      r9,#0
001684  e07f              B        |L1.6022|
                  |L1.5766|
;;;928        ROUND(l, r, a, b, p_exp_key, -2);
001686  bf00              NOP      
001688  f8d87000          LDR      r7,[r8,#0]
00168c  f8d86004          LDR      r6,[r8,#4]
001690  f1a80808          SUB      r8,r8,#8
001694  406f              EORS     r7,r7,r5
001696  406e              EORS     r6,r6,r5
001698  f007373f          AND      r7,r7,#0x3f3f3f3f
00169c  2104              MOVS     r1,#4
00169e  4630              MOV      r0,r6
0016a0  f7fffffe          BL       ror32
0016a4  4606              MOV      r6,r0
0016a6  b2f8              UXTB     r0,r7
0016a8  4962              LDR      r1,|L1.6196|
0016aa  f8510020          LDR      r0,[r1,r0,LSL #2]
0016ae  4044              EORS     r4,r4,r0
0016b0  f006363f          AND      r6,r6,#0x3f3f3f3f
0016b4  f3c72007          UBFX     r0,r7,#8,#8
0016b8  495f              LDR      r1,|L1.6200|
0016ba  f8510020          LDR      r0,[r1,r0,LSL #2]
0016be  4044              EORS     r4,r4,r0
0016c0  0c3f              LSRS     r7,r7,#16
0016c2  b2f0              UXTB     r0,r6
0016c4  495d              LDR      r1,|L1.6204|
0016c6  f8510020          LDR      r0,[r1,r0,LSL #2]
0016ca  4044              EORS     r4,r4,r0
0016cc  f3c62007          UBFX     r0,r6,#8,#8
0016d0  495b              LDR      r1,|L1.6208|
0016d2  f8510020          LDR      r0,[r1,r0,LSL #2]
0016d6  4044              EORS     r4,r4,r0
0016d8  0c36              LSRS     r6,r6,#16
0016da  b2f8              UXTB     r0,r7
0016dc  4951              LDR      r1,|L1.6180|
0016de  f8510020          LDR      r0,[r1,r0,LSL #2]
0016e2  4044              EORS     r4,r4,r0
0016e4  0a38              LSRS     r0,r7,#8
0016e6  4950              LDR      r1,|L1.6184|
0016e8  f8510020          LDR      r0,[r1,r0,LSL #2]
0016ec  4044              EORS     r4,r4,r0
0016ee  b2f0              UXTB     r0,r6
0016f0  494e              LDR      r1,|L1.6188|
0016f2  f8510020          LDR      r0,[r1,r0,LSL #2]
0016f6  4044              EORS     r4,r4,r0
0016f8  0a30              LSRS     r0,r6,#8
0016fa  494d              LDR      r1,|L1.6192|
0016fc  f8510020          LDR      r0,[r1,r0,LSL #2]
001700  4044              EORS     r4,r4,r0
001702  bf00              NOP      
;;;929        ROUND(r, l, a, b, p_exp_key, -2);
001704  bf00              NOP      
001706  f8d87000          LDR      r7,[r8,#0]
00170a  f8d86004          LDR      r6,[r8,#4]
00170e  f1a80808          SUB      r8,r8,#8
001712  4067              EORS     r7,r7,r4
001714  4066              EORS     r6,r6,r4
001716  f007373f          AND      r7,r7,#0x3f3f3f3f
00171a  2104              MOVS     r1,#4
00171c  4630              MOV      r0,r6
00171e  f7fffffe          BL       ror32
001722  4606              MOV      r6,r0
001724  b2f8              UXTB     r0,r7
001726  4943              LDR      r1,|L1.6196|
001728  f8510020          LDR      r0,[r1,r0,LSL #2]
00172c  4045              EORS     r5,r5,r0
00172e  f006363f          AND      r6,r6,#0x3f3f3f3f
001732  f3c72007          UBFX     r0,r7,#8,#8
001736  4940              LDR      r1,|L1.6200|
001738  f8510020          LDR      r0,[r1,r0,LSL #2]
00173c  4045              EORS     r5,r5,r0
00173e  0c3f              LSRS     r7,r7,#16
001740  b2f0              UXTB     r0,r6
001742  493e              LDR      r1,|L1.6204|
001744  f8510020          LDR      r0,[r1,r0,LSL #2]
001748  4045              EORS     r5,r5,r0
00174a  f3c62007          UBFX     r0,r6,#8,#8
00174e  493c              LDR      r1,|L1.6208|
001750  f8510020          LDR      r0,[r1,r0,LSL #2]
001754  4045              EORS     r5,r5,r0
001756  0c36              LSRS     r6,r6,#16
001758  b2f8              UXTB     r0,r7
00175a  4932              LDR      r1,|L1.6180|
00175c  f8510020          LDR      r0,[r1,r0,LSL #2]
001760  4045              EORS     r5,r5,r0
001762  0a38              LSRS     r0,r7,#8
001764  4930              LDR      r1,|L1.6184|
001766  f8510020          LDR      r0,[r1,r0,LSL #2]
00176a  4045              EORS     r5,r5,r0
00176c  b2f0              UXTB     r0,r6
00176e  492f              LDR      r1,|L1.6188|
001770  f8510020          LDR      r0,[r1,r0,LSL #2]
001774  4045              EORS     r5,r5,r0
001776  0a30              LSRS     r0,r6,#8
001778  492d              LDR      r1,|L1.6192|
00177a  f8510020          LDR      r0,[r1,r0,LSL #2]
00177e  4045              EORS     r5,r5,r0
001780  bf00              NOP      
001782  f1090901          ADD      r9,r9,#1              ;927
                  |L1.6022|
001786  f1b90f08          CMP      r9,#8                 ;927
00178a  f4ffaf7c          BCC      |L1.5766|
;;;930      }
;;;931      FP(r, l, a);
00178e  bf00              NOP      
001790  2101              MOVS     r1,#1
001792  4628              MOV      r0,r5
001794  f7fffffe          BL       ror32
001798  4605              MOV      r5,r0
00179a  462e              MOV      r6,r5
00179c  4065              EORS     r5,r5,r4
00179e  f00535aa          AND      r5,r5,#0xaaaaaaaa
0017a2  406c              EORS     r4,r4,r5
0017a4  4075              EORS     r5,r5,r6
0017a6  2107              MOVS     r1,#7
0017a8  4620              MOV      r0,r4
0017aa  f7fffffe          BL       rol32
0017ae  4604              MOV      r4,r0
0017b0  462e              MOV      r6,r5
0017b2  4065              EORS     r5,r5,r4
0017b4  f00525ff          AND      r5,r5,#0xff00ff00
0017b8  406c              EORS     r4,r4,r5
0017ba  4075              EORS     r5,r5,r6
0017bc  2106              MOVS     r1,#6
0017be  4620              MOV      r0,r4
0017c0  f7fffffe          BL       ror32
0017c4  4604              MOV      r4,r0
0017c6  462e              MOV      r6,r5
0017c8  4065              EORS     r5,r5,r4
0017ca  f00535cc          AND      r5,r5,#0xcccccccc
0017ce  406c              EORS     r4,r4,r5
0017d0  4075              EORS     r5,r5,r6
0017d2  210e              MOVS     r1,#0xe
0017d4  4620              MOV      r0,r4
0017d6  f7fffffe          BL       rol32
0017da  4604              MOV      r4,r0
0017dc  462e              MOV      r6,r5
0017de  4065              EORS     r5,r5,r4
0017e0  f36f050f          BFC      r5,#0,#16
0017e4  406c              EORS     r4,r4,r5
0017e6  4075              EORS     r5,r5,r6
0017e8  210c              MOVS     r1,#0xc
0017ea  4620              MOV      r0,r4
0017ec  f7fffffe          BL       ror32
0017f0  4604              MOV      r4,r0
0017f2  462e              MOV      r6,r5
0017f4  4065              EORS     r5,r5,r4
0017f6  f00535f0          AND      r5,r5,#0xf0f0f0f0
0017fa  406c              EORS     r4,r4,r5
0017fc  4075              EORS     r5,r5,r6
0017fe  2104              MOVS     r1,#4
001800  4620              MOV      r0,r4
001802  f7fffffe          BL       ror32
001806  4604              MOV      r4,r0
001808  bf00              NOP      
;;;932    
;;;933      p_dst_u32[0] = cpu_to_le32(r);
00180a  4628              MOV      r0,r5
00180c  f7fffffe          BL       cpu_to_le32
001810  f8cb0000          STR      r0,[r11,#0]
;;;934      p_dst_u32[1] = cpu_to_le32(l);
001814  4620              MOV      r0,r4
001816  f7fffffe          BL       cpu_to_le32
00181a  f8cb0004          STR      r0,[r11,#4]
;;;935    }
00181e  b005              ADD      sp,sp,#0x14
001820  e8bd8ff0          POP      {r4-r11,pc}
;;;936    
                          ENDP

                  |L1.6180|
                          DCD      ||S4||
                  |L1.6184|
                          DCD      ||S2||
                  |L1.6188|
                          DCD      ||S3||
                  |L1.6192|
                          DCD      ||S1||
                  |L1.6196|
                          DCD      ||S8||
                  |L1.6200|
                          DCD      ||S6||
                  |L1.6204|
                          DCD      ||S7||
                  |L1.6208|
                          DCD      ||S5||

                          AREA ||.constdata||, DATA, READONLY, ALIGN=2

                  pc1
000000  00004004          DCB      0x00,0x00,0x40,0x04
000004  10105014          DCB      0x10,0x10,0x50,0x14
000008  04404444          DCB      0x04,0x40,0x44,0x44
00000c  14505454          DCB      0x14,0x50,0x54,0x54
000010  02024206          DCB      0x02,0x02,0x42,0x06
000014  12125216          DCB      0x12,0x12,0x52,0x16
000018  06424646          DCB      0x06,0x42,0x46,0x46
00001c  16525656          DCB      0x16,0x52,0x56,0x56
000020  8008c00c          DCB      0x80,0x08,0xc0,0x0c
000024  9018d01c          DCB      0x90,0x18,0xd0,0x1c
000028  8448c44c          DCB      0x84,0x48,0xc4,0x4c
00002c  9458d45c          DCB      0x94,0x58,0xd4,0x5c
000030  820ac20e          DCB      0x82,0x0a,0xc2,0x0e
000034  921ad21e          DCB      0x92,0x1a,0xd2,0x1e
000038  864ac64e          DCB      0x86,0x4a,0xc6,0x4e
00003c  965ad65e          DCB      0x96,0x5a,0xd6,0x5e
000040  20206024          DCB      0x20,0x20,0x60,0x24
000044  30307034          DCB      0x30,0x30,0x70,0x34
000048  24606464          DCB      0x24,0x60,0x64,0x64
00004c  34707474          DCB      0x34,0x70,0x74,0x74
000050  22226226          DCB      0x22,0x22,0x62,0x26
000054  32327236          DCB      0x32,0x32,0x72,0x36
000058  26626666          DCB      0x26,0x62,0x66,0x66
00005c  36727676          DCB      0x36,0x72,0x76,0x76
000060  a028e02c          DCB      0xa0,0x28,0xe0,0x2c
000064  b038f03c          DCB      0xb0,0x38,0xf0,0x3c
000068  a468e46c          DCB      0xa4,0x68,0xe4,0x6c
00006c  b478f47c          DCB      0xb4,0x78,0xf4,0x7c
000070  a22ae22e          DCB      0xa2,0x2a,0xe2,0x2e
000074  b23af23e          DCB      0xb2,0x3a,0xf2,0x3e
000078  a66ae66e          DCB      0xa6,0x6a,0xe6,0x6e
00007c  b67af67e          DCB      0xb6,0x7a,0xf6,0x7e
000080  08804884          DCB      0x08,0x80,0x48,0x84
000084  18905894          DCB      0x18,0x90,0x58,0x94
000088  0cc04cc4          DCB      0x0c,0xc0,0x4c,0xc4
00008c  1cd05cd4          DCB      0x1c,0xd0,0x5c,0xd4
000090  0a824a86          DCB      0x0a,0x82,0x4a,0x86
000094  1a925a96          DCB      0x1a,0x92,0x5a,0x96
000098  0ec24ec6          DCB      0x0e,0xc2,0x4e,0xc6
00009c  1ed25ed6          DCB      0x1e,0xd2,0x5e,0xd6
0000a0  8888c88c          DCB      0x88,0x88,0xc8,0x8c
0000a4  9898d89c          DCB      0x98,0x98,0xd8,0x9c
0000a8  8cc8cccc          DCB      0x8c,0xc8,0xcc,0xcc
0000ac  9cd8dcdc          DCB      0x9c,0xd8,0xdc,0xdc
0000b0  8a8aca8e          DCB      0x8a,0x8a,0xca,0x8e
0000b4  9a9ada9e          DCB      0x9a,0x9a,0xda,0x9e
0000b8  8ecacece          DCB      0x8e,0xca,0xce,0xce
0000bc  9edadede          DCB      0x9e,0xda,0xde,0xde
0000c0  28a068a4          DCB      0x28,0xa0,0x68,0xa4
0000c4  38b078b4          DCB      0x38,0xb0,0x78,0xb4
0000c8  2ce06ce4          DCB      0x2c,0xe0,0x6c,0xe4
0000cc  3cf07cf4          DCB      0x3c,0xf0,0x7c,0xf4
0000d0  2aa26aa6          DCB      0x2a,0xa2,0x6a,0xa6
0000d4  3ab27ab6          DCB      0x3a,0xb2,0x7a,0xb6
0000d8  2ee26ee6          DCB      0x2e,0xe2,0x6e,0xe6
0000dc  3ef27ef6          DCB      0x3e,0xf2,0x7e,0xf6
0000e0  a8a8e8ac          DCB      0xa8,0xa8,0xe8,0xac
0000e4  b8b8f8bc          DCB      0xb8,0xb8,0xf8,0xbc
0000e8  ace8ecec          DCB      0xac,0xe8,0xec,0xec
0000ec  bcf8fcfc          DCB      0xbc,0xf8,0xfc,0xfc
0000f0  aaaaeaae          DCB      0xaa,0xaa,0xea,0xae
0000f4  babafabe          DCB      0xba,0xba,0xfa,0xbe
0000f8  aeeaeeee          DCB      0xae,0xea,0xee,0xee
0000fc  befafefe          DCB      0xbe,0xfa,0xfe,0xfe
                  ||rs||
000100  00008080          DCB      0x00,0x00,0x80,0x80
000104  02028282          DCB      0x02,0x02,0x82,0x82
000108  04048484          DCB      0x04,0x04,0x84,0x84
00010c  06068686          DCB      0x06,0x06,0x86,0x86
000110  08088888          DCB      0x08,0x08,0x88,0x88
000114  0a0a8a8a          DCB      0x0a,0x0a,0x8a,0x8a
000118  0c0c8c8c          DCB      0x0c,0x0c,0x8c,0x8c
00011c  0e0e8e8e          DCB      0x0e,0x0e,0x8e,0x8e
000120  10109090          DCB      0x10,0x10,0x90,0x90
000124  12129292          DCB      0x12,0x12,0x92,0x92
000128  14149494          DCB      0x14,0x14,0x94,0x94
00012c  16169696          DCB      0x16,0x16,0x96,0x96
000130  18189898          DCB      0x18,0x18,0x98,0x98
000134  1a1a9a9a          DCB      0x1a,0x1a,0x9a,0x9a
000138  1c1c9c9c          DCB      0x1c,0x1c,0x9c,0x9c
00013c  1e1e9e9e          DCB      0x1e,0x1e,0x9e,0x9e
000140  2020a0a0          DCB      0x20,0x20,0xa0,0xa0
000144  2222a2a2          DCB      0x22,0x22,0xa2,0xa2
000148  2424a4a4          DCB      0x24,0x24,0xa4,0xa4
00014c  2626a6a6          DCB      0x26,0x26,0xa6,0xa6
000150  2828a8a8          DCB      0x28,0x28,0xa8,0xa8
000154  2a2aaaaa          DCB      0x2a,0x2a,0xaa,0xaa
000158  2c2cacac          DCB      0x2c,0x2c,0xac,0xac
00015c  2e2eaeae          DCB      0x2e,0x2e,0xae,0xae
000160  3030b0b0          DCB      0x30,0x30,0xb0,0xb0
000164  3232b2b2          DCB      0x32,0x32,0xb2,0xb2
000168  3434b4b4          DCB      0x34,0x34,0xb4,0xb4
00016c  3636b6b6          DCB      0x36,0x36,0xb6,0xb6
000170  3838b8b8          DCB      0x38,0x38,0xb8,0xb8
000174  3a3ababa          DCB      0x3a,0x3a,0xba,0xba
000178  3c3cbcbc          DCB      0x3c,0x3c,0xbc,0xbc
00017c  3e3ebebe          DCB      0x3e,0x3e,0xbe,0xbe
000180  4040c0c0          DCB      0x40,0x40,0xc0,0xc0
000184  4242c2c2          DCB      0x42,0x42,0xc2,0xc2
000188  4444c4c4          DCB      0x44,0x44,0xc4,0xc4
00018c  4646c6c6          DCB      0x46,0x46,0xc6,0xc6
000190  4848c8c8          DCB      0x48,0x48,0xc8,0xc8
000194  4a4acaca          DCB      0x4a,0x4a,0xca,0xca
000198  4c4ccccc          DCB      0x4c,0x4c,0xcc,0xcc
00019c  4e4ecece          DCB      0x4e,0x4e,0xce,0xce
0001a0  5050d0d0          DCB      0x50,0x50,0xd0,0xd0
0001a4  5252d2d2          DCB      0x52,0x52,0xd2,0xd2
0001a8  5454d4d4          DCB      0x54,0x54,0xd4,0xd4
0001ac  5656d6d6          DCB      0x56,0x56,0xd6,0xd6
0001b0  5858d8d8          DCB      0x58,0x58,0xd8,0xd8
0001b4  5a5adada          DCB      0x5a,0x5a,0xda,0xda
0001b8  5c5cdcdc          DCB      0x5c,0x5c,0xdc,0xdc
0001bc  5e5edede          DCB      0x5e,0x5e,0xde,0xde
0001c0  6060e0e0          DCB      0x60,0x60,0xe0,0xe0
0001c4  6262e2e2          DCB      0x62,0x62,0xe2,0xe2
0001c8  6464e4e4          DCB      0x64,0x64,0xe4,0xe4
0001cc  6666e6e6          DCB      0x66,0x66,0xe6,0xe6
0001d0  6868e8e8          DCB      0x68,0x68,0xe8,0xe8
0001d4  6a6aeaea          DCB      0x6a,0x6a,0xea,0xea
0001d8  6c6cecec          DCB      0x6c,0x6c,0xec,0xec
0001dc  6e6eeeee          DCB      0x6e,0x6e,0xee,0xee
0001e0  7070f0f0          DCB      0x70,0x70,0xf0,0xf0
0001e4  7272f2f2          DCB      0x72,0x72,0xf2,0xf2
0001e8  7474f4f4          DCB      0x74,0x74,0xf4,0xf4
0001ec  7676f6f6          DCB      0x76,0x76,0xf6,0xf6
0001f0  7878f8f8          DCB      0x78,0x78,0xf8,0xf8
0001f4  7a7afafa          DCB      0x7a,0x7a,0xfa,0xfa
0001f8  7c7cfcfc          DCB      0x7c,0x7c,0xfc,0xfc
0001fc  7e7efefe          DCB      0x7e,0x7e,0xfe,0xfe
                  pc2
                          DCD      0x00000000
                          DCD      0x00000000
                          DCD      0x00000000
                          DCD      0x00000000
                          DCD      0x00040000
                          DCD      0x00000000
                          DCD      0x04000000
                          DCD      0x00100000
                          DCD      0x00400000
                          DCD      0x00000008
                          DCD      0x00000800
                          DCD      0x40000000
                          DCD      0x00440000
                          DCD      0x00000008
                          DCD      0x04000800
                          DCD      0x40100000
                          DCD      0x00000400
                          DCD      0x00000020
                          DCD      0x08000000
                          DCD      0x00000100
                          DCD      0x00040400
                          DCD      0x00000020
                          DCD      0x0c000000
                          DCD      0x00100100
                          DCD      0x00400400
                          DCD      0x00000028
                          DCD      0x08000800
                          DCD      0x40000100
                          DCD      0x00440400
                          DCD      0x00000028
                          DCD      0x0c000800
                          DCD      0x40100100
                          DCD      0x80000000
                          DCD      0x00000010
                          DCD      0x00000000
                          DCD      0x00800000
                          DCD      0x80040000
                          DCD      0x00000010
                          DCD      0x04000000
                          DCD      0x00900000
                          DCD      0x80400000
                          DCD      0x00000018
                          DCD      0x00000800
                          DCD      0x40800000
                          DCD      0x80440000
                          DCD      0x00000018
                          DCD      0x04000800
                          DCD      0x40900000
                          DCD      0x80000400
                          DCD      0x00000030
                          DCD      0x08000000
                          DCD      0x00800100
                          DCD      0x80040400
                          DCD      0x00000030
                          DCD      0x0c000000
                          DCD      0x00900100
                          DCD      0x80400400
                          DCD      0x00000038
                          DCD      0x08000800
                          DCD      0x40800100
                          DCD      0x80440400
                          DCD      0x00000038
                          DCD      0x0c000800
                          DCD      0x40900100
                          DCD      0x10000000
                          DCD      0x00000000
                          DCD      0x00200000
                          DCD      0x00001000
                          DCD      0x10040000
                          DCD      0x00000000
                          DCD      0x04200000
                          DCD      0x00101000
                          DCD      0x10400000
                          DCD      0x00000008
                          DCD      0x00200800
                          DCD      0x40001000
                          DCD      0x10440000
                          DCD      0x00000008
                          DCD      0x04200800
                          DCD      0x40101000
                          DCD      0x10000400
                          DCD      0x00000020
                          DCD      0x08200000
                          DCD      0x00001100
                          DCD      0x10040400
                          DCD      0x00000020
                          DCD      0x0c200000
                          DCD      0x00101100
                          DCD      0x10400400
                          DCD      0x00000028
                          DCD      0x08200800
                          DCD      0x40001100
                          DCD      0x10440400
                          DCD      0x00000028
                          DCD      0x0c200800
                          DCD      0x40101100
                          DCD      0x90000000
                          DCD      0x00000010
                          DCD      0x00200000
                          DCD      0x00801000
                          DCD      0x90040000
                          DCD      0x00000010
                          DCD      0x04200000
                          DCD      0x00901000
                          DCD      0x90400000
                          DCD      0x00000018
                          DCD      0x00200800
                          DCD      0x40801000
                          DCD      0x90440000
                          DCD      0x00000018
                          DCD      0x04200800
                          DCD      0x40901000
                          DCD      0x90000400
                          DCD      0x00000030
                          DCD      0x08200000
                          DCD      0x00801100
                          DCD      0x90040400
                          DCD      0x00000030
                          DCD      0x0c200000
                          DCD      0x00901100
                          DCD      0x90400400
                          DCD      0x00000038
                          DCD      0x08200800
                          DCD      0x40801100
                          DCD      0x90440400
                          DCD      0x00000038
                          DCD      0x0c200800
                          DCD      0x40901100
                          DCD      0x00000200
                          DCD      0x00080000
                          DCD      0x00000000
                          DCD      0x00000004
                          DCD      0x00040200
                          DCD      0x00080000
                          DCD      0x04000000
                          DCD      0x00100004
                          DCD      0x00400200
                          DCD      0x00080008
                          DCD      0x00000800
                          DCD      0x40000004
                          DCD      0x00440200
                          DCD      0x00080008
                          DCD      0x04000800
                          DCD      0x40100004
                          DCD      0x00000600
                          DCD      0x00080020
                          DCD      0x08000000
                          DCD      0x00000104
                          DCD      0x00040600
                          DCD      0x00080020
                          DCD      0x0c000000
                          DCD      0x00100104
                          DCD      0x00400600
                          DCD      0x00080028
                          DCD      0x08000800
                          DCD      0x40000104
                          DCD      0x00440600
                          DCD      0x00080028
                          DCD      0x0c000800
                          DCD      0x40100104
                          DCD      0x80000200
                          DCD      0x00080010
                          DCD      0x00000000
                          DCD      0x00800004
                          DCD      0x80040200
                          DCD      0x00080010
                          DCD      0x04000000
                          DCD      0x00900004
                          DCD      0x80400200
                          DCD      0x00080018
                          DCD      0x00000800
                          DCD      0x40800004
                          DCD      0x80440200
                          DCD      0x00080018
                          DCD      0x04000800
                          DCD      0x40900004
                          DCD      0x80000600
                          DCD      0x00080030
                          DCD      0x08000000
                          DCD      0x00800104
                          DCD      0x80040600
                          DCD      0x00080030
                          DCD      0x0c000000
                          DCD      0x00900104
                          DCD      0x80400600
                          DCD      0x00080038
                          DCD      0x08000800
                          DCD      0x40800104
                          DCD      0x80440600
                          DCD      0x00080038
                          DCD      0x0c000800
                          DCD      0x40900104
                          DCD      0x10000200
                          DCD      0x00080000
                          DCD      0x00200000
                          DCD      0x00001004
                          DCD      0x10040200
                          DCD      0x00080000
                          DCD      0x04200000
                          DCD      0x00101004
                          DCD      0x10400200
                          DCD      0x00080008
                          DCD      0x00200800
                          DCD      0x40001004
                          DCD      0x10440200
                          DCD      0x00080008
                          DCD      0x04200800
                          DCD      0x40101004
                          DCD      0x10000600
                          DCD      0x00080020
                          DCD      0x08200000
                          DCD      0x00001104
                          DCD      0x10040600
                          DCD      0x00080020
                          DCD      0x0c200000
                          DCD      0x00101104
                          DCD      0x10400600
                          DCD      0x00080028
                          DCD      0x08200800
                          DCD      0x40001104
                          DCD      0x10440600
                          DCD      0x00080028
                          DCD      0x0c200800
                          DCD      0x40101104
                          DCD      0x90000200
                          DCD      0x00080010
                          DCD      0x00200000
                          DCD      0x00801004
                          DCD      0x90040200
                          DCD      0x00080010
                          DCD      0x04200000
                          DCD      0x00901004
                          DCD      0x90400200
                          DCD      0x00080018
                          DCD      0x00200800
                          DCD      0x40801004
                          DCD      0x90440200
                          DCD      0x00080018
                          DCD      0x04200800
                          DCD      0x40901004
                          DCD      0x90000600
                          DCD      0x00080030
                          DCD      0x08200000
                          DCD      0x00801104
                          DCD      0x90040600
                          DCD      0x00080030
                          DCD      0x0c200000
                          DCD      0x00901104
                          DCD      0x90400600
                          DCD      0x00080038
                          DCD      0x08200800
                          DCD      0x40801104
                          DCD      0x90440600
                          DCD      0x00080038
                          DCD      0x0c200800
                          DCD      0x40901104
                          DCD      0x00000002
                          DCD      0x00002000
                          DCD      0x20000000
                          DCD      0x00000001
                          DCD      0x00040002
                          DCD      0x00002000
                          DCD      0x24000000
                          DCD      0x00100001
                          DCD      0x00400002
                          DCD      0x00002008
                          DCD      0x20000800
                          DCD      0x40000001
                          DCD      0x00440002
                          DCD      0x00002008
                          DCD      0x24000800
                          DCD      0x40100001
                          DCD      0x00000402
                          DCD      0x00002020
                          DCD      0x28000000
                          DCD      0x00000101
                          DCD      0x00040402
                          DCD      0x00002020
                          DCD      0x2c000000
                          DCD      0x00100101
                          DCD      0x00400402
                          DCD      0x00002028
                          DCD      0x28000800
                          DCD      0x40000101
                          DCD      0x00440402
                          DCD      0x00002028
                          DCD      0x2c000800
                          DCD      0x40100101
                          DCD      0x80000002
                          DCD      0x00002010
                          DCD      0x20000000
                          DCD      0x00800001
                          DCD      0x80040002
                          DCD      0x00002010
                          DCD      0x24000000
                          DCD      0x00900001
                          DCD      0x80400002
                          DCD      0x00002018
                          DCD      0x20000800
                          DCD      0x40800001
                          DCD      0x80440002
                          DCD      0x00002018
                          DCD      0x24000800
                          DCD      0x40900001
                          DCD      0x80000402
                          DCD      0x00002030
                          DCD      0x28000000
                          DCD      0x00800101
                          DCD      0x80040402
                          DCD      0x00002030
                          DCD      0x2c000000
                          DCD      0x00900101
                          DCD      0x80400402
                          DCD      0x00002038
                          DCD      0x28000800
                          DCD      0x40800101
                          DCD      0x80440402
                          DCD      0x00002038
                          DCD      0x2c000800
                          DCD      0x40900101
                          DCD      0x10000002
                          DCD      0x00002000
                          DCD      0x20200000
                          DCD      0x00001001
                          DCD      0x10040002
                          DCD      0x00002000
                          DCD      0x24200000
                          DCD      0x00101001
                          DCD      0x10400002
                          DCD      0x00002008
                          DCD      0x20200800
                          DCD      0x40001001
                          DCD      0x10440002
                          DCD      0x00002008
                          DCD      0x24200800
                          DCD      0x40101001
                          DCD      0x10000402
                          DCD      0x00002020
                          DCD      0x28200000
                          DCD      0x00001101
                          DCD      0x10040402
                          DCD      0x00002020
                          DCD      0x2c200000
                          DCD      0x00101101
                          DCD      0x10400402
                          DCD      0x00002028
                          DCD      0x28200800
                          DCD      0x40001101
                          DCD      0x10440402
                          DCD      0x00002028
                          DCD      0x2c200800
                          DCD      0x40101101
                          DCD      0x90000002
                          DCD      0x00002010
                          DCD      0x20200000
                          DCD      0x00801001
                          DCD      0x90040002
                          DCD      0x00002010
                          DCD      0x24200000
                          DCD      0x00901001
                          DCD      0x90400002
                          DCD      0x00002018
                          DCD      0x20200800
                          DCD      0x40801001
                          DCD      0x90440002
                          DCD      0x00002018
                          DCD      0x24200800
                          DCD      0x40901001
                          DCD      0x90000402
                          DCD      0x00002030
                          DCD      0x28200000
                          DCD      0x00801101
                          DCD      0x90040402
                          DCD      0x00002030
                          DCD      0x2c200000
                          DCD      0x00901101
                          DCD      0x90400402
                          DCD      0x00002038
                          DCD      0x28200800
                          DCD      0x40801101
                          DCD      0x90440402
                          DCD      0x00002038
                          DCD      0x2c200800
                          DCD      0x40901101
                          DCD      0x00000202
                          DCD      0x00082000
                          DCD      0x20000000
                          DCD      0x00000005
                          DCD      0x00040202
                          DCD      0x00082000
                          DCD      0x24000000
                          DCD      0x00100005
                          DCD      0x00400202
                          DCD      0x00082008
                          DCD      0x20000800
                          DCD      0x40000005
                          DCD      0x00440202
                          DCD      0x00082008
                          DCD      0x24000800
                          DCD      0x40100005
                          DCD      0x00000602
                          DCD      0x00082020
                          DCD      0x28000000
                          DCD      0x00000105
                          DCD      0x00040602
                          DCD      0x00082020
                          DCD      0x2c000000
                          DCD      0x00100105
                          DCD      0x00400602
                          DCD      0x00082028
                          DCD      0x28000800
                          DCD      0x40000105
                          DCD      0x00440602
                          DCD      0x00082028
                          DCD      0x2c000800
                          DCD      0x40100105
                          DCD      0x80000202
                          DCD      0x00082010
                          DCD      0x20000000
                          DCD      0x00800005
                          DCD      0x80040202
                          DCD      0x00082010
                          DCD      0x24000000
                          DCD      0x00900005
                          DCD      0x80400202
                          DCD      0x00082018
                          DCD      0x20000800
                          DCD      0x40800005
                          DCD      0x80440202
                          DCD      0x00082018
                          DCD      0x24000800
                          DCD      0x40900005
                          DCD      0x80000602
                          DCD      0x00082030
                          DCD      0x28000000
                          DCD      0x00800105
                          DCD      0x80040602
                          DCD      0x00082030
                          DCD      0x2c000000
                          DCD      0x00900105
                          DCD      0x80400602
                          DCD      0x00082038
                          DCD      0x28000800
                          DCD      0x40800105
                          DCD      0x80440602
                          DCD      0x00082038
                          DCD      0x2c000800
                          DCD      0x40900105
                          DCD      0x10000202
                          DCD      0x00082000
                          DCD      0x20200000
                          DCD      0x00001005
                          DCD      0x10040202
                          DCD      0x00082000
                          DCD      0x24200000
                          DCD      0x00101005
                          DCD      0x10400202
                          DCD      0x00082008
                          DCD      0x20200800
                          DCD      0x40001005
                          DCD      0x10440202
                          DCD      0x00082008
                          DCD      0x24200800
                          DCD      0x40101005
                          DCD      0x10000602
                          DCD      0x00082020
                          DCD      0x28200000
                          DCD      0x00001105
                          DCD      0x10040602
                          DCD      0x00082020
                          DCD      0x2c200000
                          DCD      0x00101105
                          DCD      0x10400602
                          DCD      0x00082028
                          DCD      0x28200800
                          DCD      0x40001105
                          DCD      0x10440602
                          DCD      0x00082028
                          DCD      0x2c200800
                          DCD      0x40101105
                          DCD      0x90000202
                          DCD      0x00082010
                          DCD      0x20200000
                          DCD      0x00801005
                          DCD      0x90040202
                          DCD      0x00082010
                          DCD      0x24200000
                          DCD      0x00901005
                          DCD      0x90400202
                          DCD      0x00082018
                          DCD      0x20200800
                          DCD      0x40801005
                          DCD      0x90440202
                          DCD      0x00082018
                          DCD      0x24200800
                          DCD      0x40901005
                          DCD      0x90000602
                          DCD      0x00082030
                          DCD      0x28200000
                          DCD      0x00801105
                          DCD      0x90040602
                          DCD      0x00082030
                          DCD      0x2c200000
                          DCD      0x00901105
                          DCD      0x90400602
                          DCD      0x00082038
                          DCD      0x28200800
                          DCD      0x40801105
                          DCD      0x90440602
                          DCD      0x00082038
                          DCD      0x2c200800
                          DCD      0x40901105
                          DCD      0x00000000
                          DCD      0x00000000
                          DCD      0x00000000
                          DCD      0x00000000
                          DCD      0x00000000
                          DCD      0x00000008
                          DCD      0x00080000
                          DCD      0x10000000
                          DCD      0x02000000
                          DCD      0x00000000
                          DCD      0x00000080
                          DCD      0x00001000
                          DCD      0x02000000
                          DCD      0x00000008
                          DCD      0x00080080
                          DCD      0x10001000
                          DCD      0x00004000
                          DCD      0x00000000
                          DCD      0x00000040
                          DCD      0x00040000
                          DCD      0x00004000
                          DCD      0x00000008
                          DCD      0x00080040
                          DCD      0x10040000
                          DCD      0x02004000
                          DCD      0x00000000
                          DCD      0x000000c0
                          DCD      0x00041000
                          DCD      0x02004000
                          DCD      0x00000008
                          DCD      0x000800c0
                          DCD      0x10041000
                          DCD      0x00020000
                          DCD      0x00008000
                          DCD      0x08000000
                          DCD      0x00200000
                          DCD      0x00020000
                          DCD      0x00008008
                          DCD      0x08080000
                          DCD      0x10200000
                          DCD      0x02020000
                          DCD      0x00008000
                          DCD      0x08000080
                          DCD      0x00201000
                          DCD      0x02020000
                          DCD      0x00008008
                          DCD      0x08080080
                          DCD      0x10201000
                          DCD      0x00024000
                          DCD      0x00008000
                          DCD      0x08000040
                          DCD      0x00240000
                          DCD      0x00024000
                          DCD      0x00008008
                          DCD      0x08080040
                          DCD      0x10240000
                          DCD      0x02024000
                          DCD      0x00008000
                          DCD      0x080000c0
                          DCD      0x00241000
                          DCD      0x02024000
                          DCD      0x00008008
                          DCD      0x080800c0
                          DCD      0x10241000
                          DCD      0x00000000
                          DCD      0x01000000
                          DCD      0x00002000
                          DCD      0x00000020
                          DCD      0x00000000
                          DCD      0x01000008
                          DCD      0x00082000
                          DCD      0x10000020
                          DCD      0x02000000
                          DCD      0x01000000
                          DCD      0x00002080
                          DCD      0x00001020
                          DCD      0x02000000
                          DCD      0x01000008
                          DCD      0x00082080
                          DCD      0x10001020
                          DCD      0x00004000
                          DCD      0x01000000
                          DCD      0x00002040
                          DCD      0x00040020
                          DCD      0x00004000
                          DCD      0x01000008
                          DCD      0x00082040
                          DCD      0x10040020
                          DCD      0x02004000
                          DCD      0x01000000
                          DCD      0x000020c0
                          DCD      0x00041020
                          DCD      0x02004000
                          DCD      0x01000008
                          DCD      0x000820c0
                          DCD      0x10041020
                          DCD      0x00020000
                          DCD      0x01008000
                          DCD      0x08002000
                          DCD      0x00200020
                          DCD      0x00020000
                          DCD      0x01008008
                          DCD      0x08082000
                          DCD      0x10200020
                          DCD      0x02020000
                          DCD      0x01008000
                          DCD      0x08002080
                          DCD      0x00201020
                          DCD      0x02020000
                          DCD      0x01008008
                          DCD      0x08082080
                          DCD      0x10201020
                          DCD      0x00024000
                          DCD      0x01008000
                          DCD      0x08002040
                          DCD      0x00240020
                          DCD      0x00024000
                          DCD      0x01008008
                          DCD      0x08082040
                          DCD      0x10240020
                          DCD      0x02024000
                          DCD      0x01008000
                          DCD      0x080020c0
                          DCD      0x00241020
                          DCD      0x02024000
                          DCD      0x01008008
                          DCD      0x080820c0
                          DCD      0x10241020
                          DCD      0x00000400
                          DCD      0x04000000
                          DCD      0x00100000
                          DCD      0x00000004
                          DCD      0x00000400
                          DCD      0x04000008
                          DCD      0x00180000
                          DCD      0x10000004
                          DCD      0x02000400
                          DCD      0x04000000
                          DCD      0x00100080
                          DCD      0x00001004
                          DCD      0x02000400
                          DCD      0x04000008
                          DCD      0x00180080
                          DCD      0x10001004
                          DCD      0x00004400
                          DCD      0x04000000
                          DCD      0x00100040
                          DCD      0x00040004
                          DCD      0x00004400
                          DCD      0x04000008
                          DCD      0x00180040
                          DCD      0x10040004
                          DCD      0x02004400
                          DCD      0x04000000
                          DCD      0x001000c0
                          DCD      0x00041004
                          DCD      0x02004400
                          DCD      0x04000008
                          DCD      0x001800c0
                          DCD      0x10041004
                          DCD      0x00020400
                          DCD      0x04008000
                          DCD      0x08100000
                          DCD      0x00200004
                          DCD      0x00020400
                          DCD      0x04008008
                          DCD      0x08180000
                          DCD      0x10200004
                          DCD      0x02020400
                          DCD      0x04008000
                          DCD      0x08100080
                          DCD      0x00201004
                          DCD      0x02020400
                          DCD      0x04008008
                          DCD      0x08180080
                          DCD      0x10201004
                          DCD      0x00024400
                          DCD      0x04008000
                          DCD      0x08100040
                          DCD      0x00240004
                          DCD      0x00024400
                          DCD      0x04008008
                          DCD      0x08180040
                          DCD      0x10240004
                          DCD      0x02024400
                          DCD      0x04008000
                          DCD      0x081000c0
                          DCD      0x00241004
                          DCD      0x02024400
                          DCD      0x04008008
                          DCD      0x081800c0
                          DCD      0x10241004
                          DCD      0x00000400
                          DCD      0x05000000
                          DCD      0x00102000
                          DCD      0x00000024
                          DCD      0x00000400
                          DCD      0x05000008
                          DCD      0x00182000
                          DCD      0x10000024
                          DCD      0x02000400
                          DCD      0x05000000
                          DCD      0x00102080
                          DCD      0x00001024
                          DCD      0x02000400
                          DCD      0x05000008
                          DCD      0x00182080
                          DCD      0x10001024
                          DCD      0x00004400
                          DCD      0x05000000
                          DCD      0x00102040
                          DCD      0x00040024
                          DCD      0x00004400
                          DCD      0x05000008
                          DCD      0x00182040
                          DCD      0x10040024
                          DCD      0x02004400
                          DCD      0x05000000
                          DCD      0x001020c0
                          DCD      0x00041024
                          DCD      0x02004400
                          DCD      0x05000008
                          DCD      0x001820c0
                          DCD      0x10041024
                          DCD      0x00020400
                          DCD      0x05008000
                          DCD      0x08102000
                          DCD      0x00200024
                          DCD      0x00020400
                          DCD      0x05008008
                          DCD      0x08182000
                          DCD      0x10200024
                          DCD      0x02020400
                          DCD      0x05008000
                          DCD      0x08102080
                          DCD      0x00201024
                          DCD      0x02020400
                          DCD      0x05008008
                          DCD      0x08182080
                          DCD      0x10201024
                          DCD      0x00024400
                          DCD      0x05008000
                          DCD      0x08102040
                          DCD      0x00240024
                          DCD      0x00024400
                          DCD      0x05008008
                          DCD      0x08182040
                          DCD      0x10240024
                          DCD      0x02024400
                          DCD      0x05008000
                          DCD      0x081020c0
                          DCD      0x00241024
                          DCD      0x02024400
                          DCD      0x05008008
                          DCD      0x081820c0
                          DCD      0x10241024
                          DCD      0x00000800
                          DCD      0x00010000
                          DCD      0x20000000
                          DCD      0x00000010
                          DCD      0x00000800
                          DCD      0x00010008
                          DCD      0x20080000
                          DCD      0x10000010
                          DCD      0x02000800
                          DCD      0x00010000
                          DCD      0x20000080
                          DCD      0x00001010
                          DCD      0x02000800
                          DCD      0x00010008
                          DCD      0x20080080
                          DCD      0x10001010
                          DCD      0x00004800
                          DCD      0x00010000
                          DCD      0x20000040
                          DCD      0x00040010
                          DCD      0x00004800
                          DCD      0x00010008
                          DCD      0x20080040
                          DCD      0x10040010
                          DCD      0x02004800
                          DCD      0x00010000
                          DCD      0x200000c0
                          DCD      0x00041010
                          DCD      0x02004800
                          DCD      0x00010008
                          DCD      0x200800c0
                          DCD      0x10041010
                          DCD      0x00020800
                          DCD      0x00018000
                          DCD      0x28000000
                          DCD      0x00200010
                          DCD      0x00020800
                          DCD      0x00018008
                          DCD      0x28080000
                          DCD      0x10200010
                          DCD      0x02020800
                          DCD      0x00018000
                          DCD      0x28000080
                          DCD      0x00201010
                          DCD      0x02020800
                          DCD      0x00018008
                          DCD      0x28080080
                          DCD      0x10201010
                          DCD      0x00024800
                          DCD      0x00018000
                          DCD      0x28000040
                          DCD      0x00240010
                          DCD      0x00024800
                          DCD      0x00018008
                          DCD      0x28080040
                          DCD      0x10240010
                          DCD      0x02024800
                          DCD      0x00018000
                          DCD      0x280000c0
                          DCD      0x00241010
                          DCD      0x02024800
                          DCD      0x00018008
                          DCD      0x280800c0
                          DCD      0x10241010
                          DCD      0x00000800
                          DCD      0x01010000
                          DCD      0x20002000
                          DCD      0x00000030
                          DCD      0x00000800
                          DCD      0x01010008
                          DCD      0x20082000
                          DCD      0x10000030
                          DCD      0x02000800
                          DCD      0x01010000
                          DCD      0x20002080
                          DCD      0x00001030
                          DCD      0x02000800
                          DCD      0x01010008
                          DCD      0x20082080
                          DCD      0x10001030
                          DCD      0x00004800
                          DCD      0x01010000
                          DCD      0x20002040
                          DCD      0x00040030
                          DCD      0x00004800
                          DCD      0x01010008
                          DCD      0x20082040
                          DCD      0x10040030
                          DCD      0x02004800
                          DCD      0x01010000
                          DCD      0x200020c0
                          DCD      0x00041030
                          DCD      0x02004800
                          DCD      0x01010008
                          DCD      0x200820c0
                          DCD      0x10041030
                          DCD      0x00020800
                          DCD      0x01018000
                          DCD      0x28002000
                          DCD      0x00200030
                          DCD      0x00020800
                          DCD      0x01018008
                          DCD      0x28082000
                          DCD      0x10200030
                          DCD      0x02020800
                          DCD      0x01018000
                          DCD      0x28002080
                          DCD      0x00201030
                          DCD      0x02020800
                          DCD      0x01018008
                          DCD      0x28082080
                          DCD      0x10201030
                          DCD      0x00024800
                          DCD      0x01018000
                          DCD      0x28002040
                          DCD      0x00240030
                          DCD      0x00024800
                          DCD      0x01018008
                          DCD      0x28082040
                          DCD      0x10240030
                          DCD      0x02024800
                          DCD      0x01018000
                          DCD      0x280020c0
                          DCD      0x00241030
                          DCD      0x02024800
                          DCD      0x01018008
                          DCD      0x280820c0
                          DCD      0x10241030
                          DCD      0x00000c00
                          DCD      0x04010000
                          DCD      0x20100000
                          DCD      0x00000014
                          DCD      0x00000c00
                          DCD      0x04010008
                          DCD      0x20180000
                          DCD      0x10000014
                          DCD      0x02000c00
                          DCD      0x04010000
                          DCD      0x20100080
                          DCD      0x00001014
                          DCD      0x02000c00
                          DCD      0x04010008
                          DCD      0x20180080
                          DCD      0x10001014
                          DCD      0x00004c00
                          DCD      0x04010000
                          DCD      0x20100040
                          DCD      0x00040014
                          DCD      0x00004c00
                          DCD      0x04010008
                          DCD      0x20180040
                          DCD      0x10040014
                          DCD      0x02004c00
                          DCD      0x04010000
                          DCD      0x201000c0
                          DCD      0x00041014
                          DCD      0x02004c00
                          DCD      0x04010008
                          DCD      0x201800c0
                          DCD      0x10041014
                          DCD      0x00020c00
                          DCD      0x04018000
                          DCD      0x28100000
                          DCD      0x00200014
                          DCD      0x00020c00
                          DCD      0x04018008
                          DCD      0x28180000
                          DCD      0x10200014
                          DCD      0x02020c00
                          DCD      0x04018000
                          DCD      0x28100080
                          DCD      0x00201014
                          DCD      0x02020c00
                          DCD      0x04018008
                          DCD      0x28180080
                          DCD      0x10201014
                          DCD      0x00024c00
                          DCD      0x04018000
                          DCD      0x28100040
                          DCD      0x00240014
                          DCD      0x00024c00
                          DCD      0x04018008
                          DCD      0x28180040
                          DCD      0x10240014
                          DCD      0x02024c00
                          DCD      0x04018000
                          DCD      0x281000c0
                          DCD      0x00241014
                          DCD      0x02024c00
                          DCD      0x04018008
                          DCD      0x281800c0
                          DCD      0x10241014
                          DCD      0x00000c00
                          DCD      0x05010000
                          DCD      0x20102000
                          DCD      0x00000034
                          DCD      0x00000c00
                          DCD      0x05010008
                          DCD      0x20182000
                          DCD      0x10000034
                          DCD      0x02000c00
                          DCD      0x05010000
                          DCD      0x20102080
                          DCD      0x00001034
                          DCD      0x02000c00
                          DCD      0x05010008
                          DCD      0x20182080
                          DCD      0x10001034
                          DCD      0x00004c00
                          DCD      0x05010000
                          DCD      0x20102040
                          DCD      0x00040034
                          DCD      0x00004c00
                          DCD      0x05010008
                          DCD      0x20182040
                          DCD      0x10040034
                          DCD      0x02004c00
                          DCD      0x05010000
                          DCD      0x201020c0
                          DCD      0x00041034
                          DCD      0x02004c00
                          DCD      0x05010008
                          DCD      0x201820c0
                          DCD      0x10041034
                          DCD      0x00020c00
                          DCD      0x05018000
                          DCD      0x28102000
                          DCD      0x00200034
                          DCD      0x00020c00
                          DCD      0x05018008
                          DCD      0x28182000
                          DCD      0x10200034
                          DCD      0x02020c00
                          DCD      0x05018000
                          DCD      0x28102080
                          DCD      0x00201034
                          DCD      0x02020c00
                          DCD      0x05018008
                          DCD      0x28182080
                          DCD      0x10201034
                          DCD      0x00024c00
                          DCD      0x05018000
                          DCD      0x28102040
                          DCD      0x00240034
                          DCD      0x00024c00
                          DCD      0x05018008
                          DCD      0x28182040
                          DCD      0x10240034
                          DCD      0x02024c00
                          DCD      0x05018000
                          DCD      0x281020c0
                          DCD      0x00241034
                          DCD      0x02024c00
                          DCD      0x05018008
                          DCD      0x281820c0
                          DCD      0x10241034
                  ||S1||
                          DCD      0x01010400
                          DCD      0x00000000
                          DCD      0x00010000
                          DCD      0x01010404
                          DCD      0x01010004
                          DCD      0x00010404
                          DCD      0x00000004
                          DCD      0x00010000
                          DCD      0x00000400
                          DCD      0x01010400
                          DCD      0x01010404
                          DCD      0x00000400
                          DCD      0x01000404
                          DCD      0x01010004
                          DCD      0x01000000
                          DCD      0x00000004
                          DCD      0x00000404
                          DCD      0x01000400
                          DCD      0x01000400
                          DCD      0x00010400
                          DCD      0x00010400
                          DCD      0x01010000
                          DCD      0x01010000
                          DCD      0x01000404
                          DCD      0x00010004
                          DCD      0x01000004
                          DCD      0x01000004
                          DCD      0x00010004
                          DCD      0x00000000
                          DCD      0x00000404
                          DCD      0x00010404
                          DCD      0x01000000
                          DCD      0x00010000
                          DCD      0x01010404
                          DCD      0x00000004
                          DCD      0x01010000
                          DCD      0x01010400
                          DCD      0x01000000
                          DCD      0x01000000
                          DCD      0x00000400
                          DCD      0x01010004
                          DCD      0x00010000
                          DCD      0x00010400
                          DCD      0x01000004
                          DCD      0x00000400
                          DCD      0x00000004
                          DCD      0x01000404
                          DCD      0x00010404
                          DCD      0x01010404
                          DCD      0x00010004
                          DCD      0x01010000
                          DCD      0x01000404
                          DCD      0x01000004
                          DCD      0x00000404
                          DCD      0x00010404
                          DCD      0x01010400
                          DCD      0x00000404
                          DCD      0x01000400
                          DCD      0x01000400
                          DCD      0x00000000
                          DCD      0x00010004
                          DCD      0x00010400
                          DCD      0x00000000
                          DCD      0x01010004
                  ||S2||
                          DCD      0x80108020
                          DCD      0x80008000
                          DCD      0x00008000
                          DCD      0x00108020
                          DCD      0x00100000
                          DCD      0x00000020
                          DCD      0x80100020
                          DCD      0x80008020
                          DCD      0x80000020
                          DCD      0x80108020
                          DCD      0x80108000
                          DCD      0x80000000
                          DCD      0x80008000
                          DCD      0x00100000
                          DCD      0x00000020
                          DCD      0x80100020
                          DCD      0x00108000
                          DCD      0x00100020
                          DCD      0x80008020
                          DCD      0x00000000
                          DCD      0x80000000
                          DCD      0x00008000
                          DCD      0x00108020
                          DCD      0x80100000
                          DCD      0x00100020
                          DCD      0x80000020
                          DCD      0x00000000
                          DCD      0x00108000
                          DCD      0x00008020
                          DCD      0x80108000
                          DCD      0x80100000
                          DCD      0x00008020
                          DCD      0x00000000
                          DCD      0x00108020
                          DCD      0x80100020
                          DCD      0x00100000
                          DCD      0x80008020
                          DCD      0x80100000
                          DCD      0x80108000
                          DCD      0x00008000
                          DCD      0x80100000
                          DCD      0x80008000
                          DCD      0x00000020
                          DCD      0x80108020
                          DCD      0x00108020
                          DCD      0x00000020
                          DCD      0x00008000
                          DCD      0x80000000
                          DCD      0x00008020
                          DCD      0x80108000
                          DCD      0x00100000
                          DCD      0x80000020
                          DCD      0x00100020
                          DCD      0x80008020
                          DCD      0x80000020
                          DCD      0x00100020
                          DCD      0x00108000
                          DCD      0x00000000
                          DCD      0x80008000
                          DCD      0x00008020
                          DCD      0x80000000
                          DCD      0x80100020
                          DCD      0x80108020
                          DCD      0x00108000
                  ||S3||
                          DCD      0x00000208
                          DCD      0x08020200
                          DCD      0x00000000
                          DCD      0x08020008
                          DCD      0x08000200
                          DCD      0x00000000
                          DCD      0x00020208
                          DCD      0x08000200
                          DCD      0x00020008
                          DCD      0x08000008
                          DCD      0x08000008
                          DCD      0x00020000
                          DCD      0x08020208
                          DCD      0x00020008
                          DCD      0x08020000
                          DCD      0x00000208
                          DCD      0x08000000
                          DCD      0x00000008
                          DCD      0x08020200
                          DCD      0x00000200
                          DCD      0x00020200
                          DCD      0x08020000
                          DCD      0x08020008
                          DCD      0x00020208
                          DCD      0x08000208
                          DCD      0x00020200
                          DCD      0x00020000
                          DCD      0x08000208
                          DCD      0x00000008
                          DCD      0x08020208
                          DCD      0x00000200
                          DCD      0x08000000
                          DCD      0x08020200
                          DCD      0x08000000
                          DCD      0x00020008
                          DCD      0x00000208
                          DCD      0x00020000
                          DCD      0x08020200
                          DCD      0x08000200
                          DCD      0x00000000
                          DCD      0x00000200
                          DCD      0x00020008
                          DCD      0x08020208
                          DCD      0x08000200
                          DCD      0x08000008
                          DCD      0x00000200
                          DCD      0x00000000
                          DCD      0x08020008
                          DCD      0x08000208
                          DCD      0x00020000
                          DCD      0x08000000
                          DCD      0x08020208
                          DCD      0x00000008
                          DCD      0x00020208
                          DCD      0x00020200
                          DCD      0x08000008
                          DCD      0x08020000
                          DCD      0x08000208
                          DCD      0x00000208
                          DCD      0x08020000
                          DCD      0x00020208
                          DCD      0x00000008
                          DCD      0x08020008
                          DCD      0x00020200
                  ||S4||
                          DCD      0x00802001
                          DCD      0x00002081
                          DCD      0x00002081
                          DCD      0x00000080
                          DCD      0x00802080
                          DCD      0x00800081
                          DCD      0x00800001
                          DCD      0x00002001
                          DCD      0x00000000
                          DCD      0x00802000
                          DCD      0x00802000
                          DCD      0x00802081
                          DCD      0x00000081
                          DCD      0x00000000
                          DCD      0x00800080
                          DCD      0x00800001
                          DCD      0x00000001
                          DCD      0x00002000
                          DCD      0x00800000
                          DCD      0x00802001
                          DCD      0x00000080
                          DCD      0x00800000
                          DCD      0x00002001
                          DCD      0x00002080
                          DCD      0x00800081
                          DCD      0x00000001
                          DCD      0x00002080
                          DCD      0x00800080
                          DCD      0x00002000
                          DCD      0x00802080
                          DCD      0x00802081
                          DCD      0x00000081
                          DCD      0x00800080
                          DCD      0x00800001
                          DCD      0x00802000
                          DCD      0x00802081
                          DCD      0x00000081
                          DCD      0x00000000
                          DCD      0x00000000
                          DCD      0x00802000
                          DCD      0x00002080
                          DCD      0x00800080
                          DCD      0x00800081
                          DCD      0x00000001
                          DCD      0x00802001
                          DCD      0x00002081
                          DCD      0x00002081
                          DCD      0x00000080
                          DCD      0x00802081
                          DCD      0x00000081
                          DCD      0x00000001
                          DCD      0x00002000
                          DCD      0x00800001
                          DCD      0x00002001
                          DCD      0x00802080
                          DCD      0x00800081
                          DCD      0x00002001
                          DCD      0x00002080
                          DCD      0x00800000
                          DCD      0x00802001
                          DCD      0x00000080
                          DCD      0x00800000
                          DCD      0x00002000
                          DCD      0x00802080
                  ||S5||
                          DCD      0x00000100
                          DCD      0x02080100
                          DCD      0x02080000
                          DCD      0x42000100
                          DCD      0x00080000
                          DCD      0x00000100
                          DCD      0x40000000
                          DCD      0x02080000
                          DCD      0x40080100
                          DCD      0x00080000
                          DCD      0x02000100
                          DCD      0x40080100
                          DCD      0x42000100
                          DCD      0x42080000
                          DCD      0x00080100
                          DCD      0x40000000
                          DCD      0x02000000
                          DCD      0x40080000
                          DCD      0x40080000
                          DCD      0x00000000
                          DCD      0x40000100
                          DCD      0x42080100
                          DCD      0x42080100
                          DCD      0x02000100
                          DCD      0x42080000
                          DCD      0x40000100
                          DCD      0x00000000
                          DCD      0x42000000
                          DCD      0x02080100
                          DCD      0x02000000
                          DCD      0x42000000
                          DCD      0x00080100
                          DCD      0x00080000
                          DCD      0x42000100
                          DCD      0x00000100
                          DCD      0x02000000
                          DCD      0x40000000
                          DCD      0x02080000
                          DCD      0x42000100
                          DCD      0x40080100
                          DCD      0x02000100
                          DCD      0x40000000
                          DCD      0x42080000
                          DCD      0x02080100
                          DCD      0x40080100
                          DCD      0x00000100
                          DCD      0x02000000
                          DCD      0x42080000
                          DCD      0x42080100
                          DCD      0x00080100
                          DCD      0x42000000
                          DCD      0x42080100
                          DCD      0x02080000
                          DCD      0x00000000
                          DCD      0x40080000
                          DCD      0x42000000
                          DCD      0x00080100
                          DCD      0x02000100
                          DCD      0x40000100
                          DCD      0x00080000
                          DCD      0x00000000
                          DCD      0x40080000
                          DCD      0x02080100
                          DCD      0x40000100
                  ||S6||
                          DCD      0x20000010
                          DCD      0x20400000
                          DCD      0x00004000
                          DCD      0x20404010
                          DCD      0x20400000
                          DCD      0x00000010
                          DCD      0x20404010
                          DCD      0x00400000
                          DCD      0x20004000
                          DCD      0x00404010
                          DCD      0x00400000
                          DCD      0x20000010
                          DCD      0x00400010
                          DCD      0x20004000
                          DCD      0x20000000
                          DCD      0x00004010
                          DCD      0x00000000
                          DCD      0x00400010
                          DCD      0x20004010
                          DCD      0x00004000
                          DCD      0x00404000
                          DCD      0x20004010
                          DCD      0x00000010
                          DCD      0x20400010
                          DCD      0x20400010
                          DCD      0x00000000
                          DCD      0x00404010
                          DCD      0x20404000
                          DCD      0x00004010
                          DCD      0x00404000
                          DCD      0x20404000
                          DCD      0x20000000
                          DCD      0x20004000
                          DCD      0x00000010
                          DCD      0x20400010
                          DCD      0x00404000
                          DCD      0x20404010
                          DCD      0x00400000
                          DCD      0x00004010
                          DCD      0x20000010
                          DCD      0x00400000
                          DCD      0x20004000
                          DCD      0x20000000
                          DCD      0x00004010
                          DCD      0x20000010
                          DCD      0x20404010
                          DCD      0x00404000
                          DCD      0x20400000
                          DCD      0x00404010
                          DCD      0x20404000
                          DCD      0x00000000
                          DCD      0x20400010
                          DCD      0x00000010
                          DCD      0x00004000
                          DCD      0x20400000
                          DCD      0x00404010
                          DCD      0x00004000
                          DCD      0x00400010
                          DCD      0x20004010
                          DCD      0x00000000
                          DCD      0x20404000
                          DCD      0x20000000
                          DCD      0x00400010
                          DCD      0x20004010
                  ||S7||
                          DCD      0x00200000
                          DCD      0x04200002
                          DCD      0x04000802
                          DCD      0x00000000
                          DCD      0x00000800
                          DCD      0x04000802
                          DCD      0x00200802
                          DCD      0x04200800
                          DCD      0x04200802
                          DCD      0x00200000
                          DCD      0x00000000
                          DCD      0x04000002
                          DCD      0x00000002
                          DCD      0x04000000
                          DCD      0x04200002
                          DCD      0x00000802
                          DCD      0x04000800
                          DCD      0x00200802
                          DCD      0x00200002
                          DCD      0x04000800
                          DCD      0x04000002
                          DCD      0x04200000
                          DCD      0x04200800
                          DCD      0x00200002
                          DCD      0x04200000
                          DCD      0x00000800
                          DCD      0x00000802
                          DCD      0x04200802
                          DCD      0x00200800
                          DCD      0x00000002
                          DCD      0x04000000
                          DCD      0x00200800
                          DCD      0x04000000
                          DCD      0x00200800
                          DCD      0x00200000
                          DCD      0x04000802
                          DCD      0x04000802
                          DCD      0x04200002
                          DCD      0x04200002
                          DCD      0x00000002
                          DCD      0x00200002
                          DCD      0x04000000
                          DCD      0x04000800
                          DCD      0x00200000
                          DCD      0x04200800
                          DCD      0x00000802
                          DCD      0x00200802
                          DCD      0x04200800
                          DCD      0x00000802
                          DCD      0x04000002
                          DCD      0x04200802
                          DCD      0x04200000
                          DCD      0x00200800
                          DCD      0x00000000
                          DCD      0x00000002
                          DCD      0x04200802
                          DCD      0x00000000
                          DCD      0x00200802
                          DCD      0x04200000
                          DCD      0x00000800
                          DCD      0x04000002
                          DCD      0x04000800
                          DCD      0x00000800
                          DCD      0x00200002
                  ||S8||
                          DCD      0x10001040
                          DCD      0x00001000
                          DCD      0x00040000
                          DCD      0x10041040
                          DCD      0x10000000
                          DCD      0x10001040
                          DCD      0x00000040
                          DCD      0x10000000
                          DCD      0x00040040
                          DCD      0x10040000
                          DCD      0x10041040
                          DCD      0x00041000
                          DCD      0x10041000
                          DCD      0x00041040
                          DCD      0x00001000
                          DCD      0x00000040
                          DCD      0x10040000
                          DCD      0x10000040
                          DCD      0x10001000
                          DCD      0x00001040
                          DCD      0x00041000
                          DCD      0x00040040
                          DCD      0x10040040
                          DCD      0x10041000
                          DCD      0x00001040
                          DCD      0x00000000
                          DCD      0x00000000
                          DCD      0x10040040
                          DCD      0x10000040
                          DCD      0x10001000
                          DCD      0x00041040
                          DCD      0x00040000
                          DCD      0x00041040
                          DCD      0x00040000
                          DCD      0x10041000
                          DCD      0x00001000
                          DCD      0x00000040
                          DCD      0x10040040
                          DCD      0x00001000
                          DCD      0x00041040
                          DCD      0x10001000
                          DCD      0x00000040
                          DCD      0x10000040
                          DCD      0x10040000
                          DCD      0x10040040
                          DCD      0x10000000
                          DCD      0x00040000
                          DCD      0x10001040
                          DCD      0x00000000
                          DCD      0x10041040
                          DCD      0x00040040
                          DCD      0x10000040
                          DCD      0x10040000
                          DCD      0x10001000
                          DCD      0x10001040
                          DCD      0x00000000
                          DCD      0x10041040
                          DCD      0x00041000
                          DCD      0x00041000
                          DCD      0x00001040
                          DCD      0x00001040
                          DCD      0x00040040
                          DCD      0x10000000
                          DCD      0x10041000
